TI ARM Assembler PC v15.12.1 Wed Feb 22 15:20:20 2017

Tools Copyright (c) 1996-2015 Texas Instruments Incorporated
Main_Blinky.asm                                                      PAGE    1

       1                    ;******************************************************************************
       2                    ;* TI ARM C/C++ Codegen                                       PC v15.12.1.LTS *
       3                    ;* Date/Time created: Wed Feb 22 15:20:20 2017                                *
       4                    ;******************************************************************************
       5                            .compiler_opts --abi=eabi --arm_vmrs_si_workaround=off --code_state=16 --diag_wrap=off --disab
       6 00000000                   .thumb
       7                    
       8                    $C$DW$CU        .dwtag  DW_TAG_compile_unit
       9                            .dwattr $C$DW$CU, DW_AT_name("../Main_Blinky.c")
      10                            .dwattr $C$DW$CU, DW_AT_producer("TI TI ARM C/C++ Codegen PC v15.12.1.LTS Copyright (c) 1996-2
      11                            .dwattr $C$DW$CU, DW_AT_TI_version(0x01)
      12                            .dwattr $C$DW$CU, DW_AT_comp_dir("H:\EECS_388\TI_ARM_Projects\FreeRTOS823_LM3S_Prototype\Debug
      13                    
      14                    $C$DW$1 .dwtag  DW_TAG_subprogram
      15                            .dwattr $C$DW$1, DW_AT_name("SysCtlClockSet")
      16                            .dwattr $C$DW$1, DW_AT_TI_symbol_name("SysCtlClockSet")
      17                            .dwattr $C$DW$1, DW_AT_declaration
      18                            .dwattr $C$DW$1, DW_AT_external
      19                            .dwattr $C$DW$1, DW_AT_decl_file("C:/TI_CodeComposer/StellarisWare-LM3S1968/driverlib/sysctl.h
      20                            .dwattr $C$DW$1, DW_AT_decl_line(0x267)
      21                            .dwattr $C$DW$1, DW_AT_decl_column(0x0d)
      22                    $C$DW$2 .dwtag  DW_TAG_formal_parameter
      23                            .dwattr $C$DW$2, DW_AT_type(*$C$DW$T$13)
      24                    
      25                            .dwendtag $C$DW$1
      26                    
      27                    
      28                    $C$DW$3 .dwtag  DW_TAG_subprogram
      29                            .dwattr $C$DW$3, DW_AT_name("SysCtlClockGet")
      30                            .dwattr $C$DW$3, DW_AT_TI_symbol_name("SysCtlClockGet")
      31                            .dwattr $C$DW$3, DW_AT_type(*$C$DW$T$13)
      32                            .dwattr $C$DW$3, DW_AT_declaration
      33                            .dwattr $C$DW$3, DW_AT_external
      34                            .dwattr $C$DW$3, DW_AT_decl_file("C:/TI_CodeComposer/StellarisWare-LM3S1968/driverlib/sysctl.h
      35                            .dwattr $C$DW$3, DW_AT_decl_line(0x268)
      36                            .dwattr $C$DW$3, DW_AT_decl_column(0x16)
      37                            .dwendtag $C$DW$3
      38                    
      39                    
      40                    $C$DW$4 .dwtag  DW_TAG_subprogram
      41                            .dwattr $C$DW$4, DW_AT_name("UARTStdio_Initialization")
      42                            .dwattr $C$DW$4, DW_AT_TI_symbol_name("UARTStdio_Initialization")
      43                            .dwattr $C$DW$4, DW_AT_type(*$C$DW$T$26)
      44                            .dwattr $C$DW$4, DW_AT_declaration
      45                            .dwattr $C$DW$4, DW_AT_external
      46                            .dwattr $C$DW$4, DW_AT_decl_file("..\Drivers/UARTStdio_Initialization.h")
      47                            .dwattr $C$DW$4, DW_AT_decl_line(0x1d)
      48                            .dwattr $C$DW$4, DW_AT_decl_column(0x11)
      49                            .dwendtag $C$DW$4
      50                    
      51                    
      52                    $C$DW$5 .dwtag  DW_TAG_subprogram
      53                            .dwattr $C$DW$5, DW_AT_name("UARTprintf")
      54                            .dwattr $C$DW$5, DW_AT_TI_symbol_name("UARTprintf")
      55                            .dwattr $C$DW$5, DW_AT_declaration
TI ARM Assembler PC v15.12.1 Wed Feb 22 15:20:20 2017

Tools Copyright (c) 1996-2015 Texas Instruments Incorporated
Main_Blinky.asm                                                      PAGE    2

      56                            .dwattr $C$DW$5, DW_AT_external
      57                            .dwattr $C$DW$5, DW_AT_decl_file("..\Drivers/uartstdio.h")
      58                            .dwattr $C$DW$5, DW_AT_decl_line(0x3f)
      59                            .dwattr $C$DW$5, DW_AT_decl_column(0x0d)
      60                    $C$DW$6 .dwtag  DW_TAG_formal_parameter
      61                            .dwattr $C$DW$6, DW_AT_type(*$C$DW$T$42)
      62                    
      63                    $C$DW$7 .dwtag  DW_TAG_unspecified_parameters
      64                    
      65                            .dwendtag $C$DW$5
      66                    
      67                    
      68                    $C$DW$8 .dwtag  DW_TAG_subprogram
      69                            .dwattr $C$DW$8, DW_AT_name("vTaskStartScheduler")
      70                            .dwattr $C$DW$8, DW_AT_TI_symbol_name("vTaskStartScheduler")
      71                            .dwattr $C$DW$8, DW_AT_declaration
      72                            .dwattr $C$DW$8, DW_AT_external
      73                            .dwattr $C$DW$8, DW_AT_decl_file("H:/EECS_388/TI_ARM_Projects/FreeRTOS823_LM3S_Prototype/Sourc
      74                            .dwattr $C$DW$8, DW_AT_decl_line(0x37b)
      75                            .dwattr $C$DW$8, DW_AT_decl_column(0x06)
      76                            .dwendtag $C$DW$8
      77                    
      78                    
      79                    $C$DW$9 .dwtag  DW_TAG_subprogram
      80                            .dwattr $C$DW$9, DW_AT_name("xTaskGenericCreate")
      81                            .dwattr $C$DW$9, DW_AT_TI_symbol_name("xTaskGenericCreate")
      82                            .dwattr $C$DW$9, DW_AT_type(*$C$DW$T$55)
      83                            .dwattr $C$DW$9, DW_AT_declaration
      84                            .dwattr $C$DW$9, DW_AT_external
      85                            .dwattr $C$DW$9, DW_AT_decl_file("H:/EECS_388/TI_ARM_Projects/FreeRTOS823_LM3S_Prototype/Sourc
      86                            .dwattr $C$DW$9, DW_AT_decl_line(0x7c2)
      87                            .dwattr $C$DW$9, DW_AT_decl_column(0x0c)
      88                    $C$DW$10        .dwtag  DW_TAG_formal_parameter
      89                            .dwattr $C$DW$10, DW_AT_type(*$C$DW$T$39)
      90                    
      91                    $C$DW$11        .dwtag  DW_TAG_formal_parameter
      92                            .dwattr $C$DW$11, DW_AT_type(*$C$DW$T$43)
      93                    
      94                    $C$DW$12        .dwtag  DW_TAG_formal_parameter
      95                            .dwattr $C$DW$12, DW_AT_type(*$C$DW$T$83)
      96                    
      97                    $C$DW$13        .dwtag  DW_TAG_formal_parameter
      98                            .dwattr $C$DW$13, DW_AT_type(*$C$DW$T$65)
      99                    
     100                    $C$DW$14        .dwtag  DW_TAG_formal_parameter
     101                            .dwattr $C$DW$14, DW_AT_type(*$C$DW$T$27)
     102                    
     103                    $C$DW$15        .dwtag  DW_TAG_formal_parameter
     104                            .dwattr $C$DW$15, DW_AT_type(*$C$DW$T$64)
     105                    
     106                    $C$DW$16        .dwtag  DW_TAG_formal_parameter
     107                            .dwattr $C$DW$16, DW_AT_type(*$C$DW$T$87)
     108                    
     109                    $C$DW$17        .dwtag  DW_TAG_formal_parameter
     110                            .dwattr $C$DW$17, DW_AT_type(*$C$DW$T$90)
TI ARM Assembler PC v15.12.1 Wed Feb 22 15:20:20 2017

Tools Copyright (c) 1996-2015 Texas Instruments Incorporated
Main_Blinky.asm                                                      PAGE    3

     111                    
     112                            .dwendtag $C$DW$9
     113                    
     114                    
     115                    $C$DW$18        .dwtag  DW_TAG_subprogram
     116                            .dwattr $C$DW$18, DW_AT_name("RIT128x96x4StringDraw")
     117                            .dwattr $C$DW$18, DW_AT_TI_symbol_name("RIT128x96x4StringDraw")
     118                            .dwattr $C$DW$18, DW_AT_declaration
     119                            .dwattr $C$DW$18, DW_AT_external
     120                            .dwattr $C$DW$18, DW_AT_decl_file("..\Drivers/rit128x96x4.h")
     121                            .dwattr $C$DW$18, DW_AT_decl_line(0x23)
     122                            .dwattr $C$DW$18, DW_AT_decl_column(0x0d)
     123                    $C$DW$19        .dwtag  DW_TAG_formal_parameter
     124                            .dwattr $C$DW$19, DW_AT_type(*$C$DW$T$42)
     125                    
     126                    $C$DW$20        .dwtag  DW_TAG_formal_parameter
     127                            .dwattr $C$DW$20, DW_AT_type(*$C$DW$T$13)
     128                    
     129                    $C$DW$21        .dwtag  DW_TAG_formal_parameter
     130                            .dwattr $C$DW$21, DW_AT_type(*$C$DW$T$13)
     131                    
     132                    $C$DW$22        .dwtag  DW_TAG_formal_parameter
     133                            .dwattr $C$DW$22, DW_AT_type(*$C$DW$T$6)
     134                    
     135                            .dwendtag $C$DW$18
     136                    
     137                    
     138                    $C$DW$23        .dwtag  DW_TAG_subprogram
     139                            .dwattr $C$DW$23, DW_AT_name("RIT128x96x4Init")
     140                            .dwattr $C$DW$23, DW_AT_TI_symbol_name("RIT128x96x4Init")
     141                            .dwattr $C$DW$23, DW_AT_declaration
     142                            .dwattr $C$DW$23, DW_AT_external
     143                            .dwattr $C$DW$23, DW_AT_decl_file("..\Drivers/rit128x96x4.h")
     144                            .dwattr $C$DW$23, DW_AT_decl_line(0x2c)
     145                            .dwattr $C$DW$23, DW_AT_decl_column(0x0d)
     146                    $C$DW$24        .dwtag  DW_TAG_formal_parameter
     147                            .dwattr $C$DW$24, DW_AT_type(*$C$DW$T$13)
     148                    
     149                            .dwendtag $C$DW$23
     150                    
     151                    
     152                    $C$DW$25        .dwtag  DW_TAG_subprogram
     153                            .dwattr $C$DW$25, DW_AT_name("Task_Blinky")
     154                            .dwattr $C$DW$25, DW_AT_TI_symbol_name("Task_Blinky")
     155                            .dwattr $C$DW$25, DW_AT_declaration
     156                            .dwattr $C$DW$25, DW_AT_external
     157                            .dwattr $C$DW$25, DW_AT_decl_file("../Main_Blinky.c")
     158                            .dwattr $C$DW$25, DW_AT_decl_line(0x2d)
     159                            .dwattr $C$DW$25, DW_AT_decl_column(0x0d)
     160                    $C$DW$26        .dwtag  DW_TAG_formal_parameter
     161                            .dwattr $C$DW$26, DW_AT_type(*$C$DW$T$3)
     162                    
     163                            .dwendtag $C$DW$25
     164                    
     165                    
TI ARM Assembler PC v15.12.1 Wed Feb 22 15:20:20 2017

Tools Copyright (c) 1996-2015 Texas Instruments Incorporated
Main_Blinky.asm                                                      PAGE    4

     166                    $C$DW$27        .dwtag  DW_TAG_subprogram
     167                            .dwattr $C$DW$27, DW_AT_name("Task_ReportSysTick")
     168                            .dwattr $C$DW$27, DW_AT_TI_symbol_name("Task_ReportSysTick")
     169                            .dwattr $C$DW$27, DW_AT_declaration
     170                            .dwattr $C$DW$27, DW_AT_external
     171                            .dwattr $C$DW$27, DW_AT_decl_file("../Main_Blinky.c")
     172                            .dwattr $C$DW$27, DW_AT_decl_line(0x2e)
     173                            .dwattr $C$DW$27, DW_AT_decl_column(0x0d)
     174                    $C$DW$28        .dwtag  DW_TAG_formal_parameter
     175                            .dwattr $C$DW$28, DW_AT_type(*$C$DW$T$3)
     176                    
     177                            .dwendtag $C$DW$27
     178                    
     179                            .global OLED_Initialized
     180 00000000                   .data
     181                            .align  1
     182                            .elfsym OLED_Initialized,SYM_SIZE(1)
     183 00000000           OLED_Initialized:
     184 00000000 00000000          .bits   0,8                     ; OLED_Initialized @ 0
     185                    
     186                    $C$DW$29        .dwtag  DW_TAG_variable
     187                            .dwattr $C$DW$29, DW_AT_name("OLED_Initialized")
     188                            .dwattr $C$DW$29, DW_AT_TI_symbol_name("OLED_Initialized")
     189                            .dwattr $C$DW$29, DW_AT_location[DW_OP_addr OLED_Initialized]
     190                            .dwattr $C$DW$29, DW_AT_type(*$C$DW$T$130)
     191                            .dwattr $C$DW$29, DW_AT_external
     192                            .dwattr $C$DW$29, DW_AT_decl_file("../Main_Blinky.c")
     193                            .dwattr $C$DW$29, DW_AT_decl_line(0x1e)
     194                            .dwattr $C$DW$29, DW_AT_decl_column(0x06)
     195                    
     196                            .global g_ulSystemClock
     197                            .common g_ulSystemClock,4,4
     198                    $C$DW$30        .dwtag  DW_TAG_variable
     199                            .dwattr $C$DW$30, DW_AT_name("g_ulSystemClock")
     200                            .dwattr $C$DW$30, DW_AT_TI_symbol_name("g_ulSystemClock")
     201                            .dwattr $C$DW$30, DW_AT_location[DW_OP_addr g_ulSystemClock]
     202                            .dwattr $C$DW$30, DW_AT_type(*$C$DW$T$13)
     203                            .dwattr $C$DW$30, DW_AT_external
     204                            .dwattr $C$DW$30, DW_AT_decl_file("../Main_Blinky.c")
     205                            .dwattr $C$DW$30, DW_AT_decl_line(0x35)
     206                            .dwattr $C$DW$30, DW_AT_decl_column(0x0f)
     207                    
     208                    ;       C:\TI_CodeComposer\ccsv6\tools\compiler\ti-cgt-arm_15.12.1.LTS\bin\armacpia.exe -@C:\\Users\\S
     209 00000000                   .sect   ".text"
     210                            .clink
     211                            .thumbfunc Initialize_OLED
     212 00000000                   .thumb
     213                            .global Initialize_OLED
     214                    
     215                    $C$DW$31        .dwtag  DW_TAG_subprogram
     216                            .dwattr $C$DW$31, DW_AT_name("Initialize_OLED")
     217                            .dwattr $C$DW$31, DW_AT_low_pc(Initialize_OLED)
     218                            .dwattr $C$DW$31, DW_AT_high_pc(0x00)
     219                            .dwattr $C$DW$31, DW_AT_TI_symbol_name("Initialize_OLED")
     220                            .dwattr $C$DW$31, DW_AT_external
TI ARM Assembler PC v15.12.1 Wed Feb 22 15:20:20 2017

Tools Copyright (c) 1996-2015 Texas Instruments Incorporated
Main_Blinky.asm                                                      PAGE    5

     221                            .dwattr $C$DW$31, DW_AT_TI_begin_file("../Main_Blinky.c")
     222                            .dwattr $C$DW$31, DW_AT_TI_begin_line(0x20)
     223                            .dwattr $C$DW$31, DW_AT_TI_begin_column(0x0d)
     224                            .dwattr $C$DW$31, DW_AT_decl_file("../Main_Blinky.c")
     225                            .dwattr $C$DW$31, DW_AT_decl_line(0x20)
     226                            .dwattr $C$DW$31, DW_AT_decl_column(0x0d)
     227                            .dwattr $C$DW$31, DW_AT_TI_max_frame_size(0x08)
     228                            .dwpsn  file "../Main_Blinky.c",line 32,column 31,is_stmt,address Initialize_OLED,isa 1
     229                    
     230                            .dwfde $C$DW$CIE, Initialize_OLED
     231                    
     232                    ;*****************************************************************************
     233                    ;* FUNCTION NAME: Initialize_OLED                                            *
     234                    ;*                                                                           *
     235                    ;*   Regs Modified     : A1,A2,A3,A4,V9,SP,LR,SR                             *
     236                    ;*   Regs Used         : A1,A2,A3,A4,V9,SP,LR,SR                             *
     237                    ;*   Local Frame Size  : 0 Args + 0 Auto + 4 Save = 4 byte                   *
     238                    ;*****************************************************************************
     239 00000000           Initialize_OLED:
     240                    ;* --------------------------------------------------------------------------*
     241                            .dwcfi  cfa_offset, 0
     242 00000000 B508              PUSH      {A4, LR}              ; [DPU_3_PIPE]  ; [ORIG 16-BIT INS]
     243                            .dwcfi  cfa_offset, 8
     244                            .dwcfi  save_reg_to_mem, 14, -4
     245                            .dwcfi  save_reg_to_mem, 3, -8
     246                            .dwpsn  file "../Main_Blinky.c",line 34,column 2,is_stmt,isa 1
     247 00000002 482C              LDR       A1, $C$CON1           ; [DPU_3_PIPE] |34|  ; [ORIG 16-BIT INS]
     248 00000004 7800              LDRB      A1, [A1, #0]          ; [DPU_3_PIPE] |34|  ; [ORIG 16-BIT INS]
     249 00000006 B958              CBNZ      A1, ||$C$L1||         ; []  ; [ORIG 16-BIT INS]
     250                            ; BRANCHCC OCCURS {||$C$L1||}    ; [] |34| 
     251                    ;* --------------------------------------------------------------------------*
     252                            .dwpsn  file "../Main_Blinky.c",line 38,column 3,is_stmt,isa 1
     253 00000008 482B              LDR       A1, $C$CON2           ; [DPU_3_PIPE] |38|  ; [ORIG 16-BIT INS]
     254                    $C$DW$32        .dwtag  DW_TAG_TI_branch
     255                            .dwattr $C$DW$32, DW_AT_low_pc(0x00)
     256                            .dwattr $C$DW$32, DW_AT_name("RIT128x96x4Init")
     257                            .dwattr $C$DW$32, DW_AT_TI_call
     258                    
     259 0000000a FFFEF7FF!         BL        RIT128x96x4Init       ; [DPU_3_PIPE] |38|  ; [KEEP 32-BIT INS]
     260                            ; CALL OCCURS {RIT128x96x4Init }  ; [] |38| 
     261                            .dwpsn  file "../Main_Blinky.c",line 39,column 3,is_stmt,isa 1
     262 0000000e A01C              ADR       A1, $C$SL1            ; [DPU_3_PIPE] |39|  ; [ORIG 16-BIT INS]
     263 00000010 2124              MOVS      A2, #36               ; [DPU_3_PIPE] |39|  ; [ORIG 16-BIT INS]
     264 00000012 2200              MOVS      A3, #0                ; [DPU_3_PIPE] |39|  ; [ORIG 16-BIT INS]
     265 00000014 2308              MOVS      A4, #8                ; [DPU_3_PIPE] |39|  ; [ORIG 16-BIT INS]
     266                    $C$DW$33        .dwtag  DW_TAG_TI_branch
     267                            .dwattr $C$DW$33, DW_AT_low_pc(0x00)
     268                            .dwattr $C$DW$33, DW_AT_name("RIT128x96x4StringDraw")
     269                            .dwattr $C$DW$33, DW_AT_TI_call
     270                    
     271 00000016 FFFEF7FF!         BL        RIT128x96x4StringDraw ; [DPU_3_PIPE] |39|  ; [KEEP 32-BIT INS]
     272                            ; CALL OCCURS {RIT128x96x4StringDraw }  ; [] |39| 
     273                            .dwpsn  file "../Main_Blinky.c",line 41,column 3,is_stmt,isa 1
     274 0000001a 4926              LDR       A2, $C$CON1           ; [DPU_3_PIPE] |41|  ; [ORIG 16-BIT INS]
     275 0000001c 2001              MOVS      A1, #1                ; [DPU_3_PIPE] |41|  ; [ORIG 16-BIT INS]
TI ARM Assembler PC v15.12.1 Wed Feb 22 15:20:20 2017

Tools Copyright (c) 1996-2015 Texas Instruments Incorporated
Main_Blinky.asm                                                      PAGE    6

     276 0000001e 7008              STRB      A1, [A2, #0]          ; [DPU_3_PIPE] |41|  ; [ORIG 16-BIT INS]
     277                            .dwpsn  file "../Main_Blinky.c",line 44,column 1,is_stmt,isa 1
     278                    ;* --------------------------------------------------------------------------*
     279                    ||$C$L1||:    
     280                    $C$DW$34        .dwtag  DW_TAG_TI_branch
     281                            .dwattr $C$DW$34, DW_AT_low_pc(0x00)
     282                            .dwattr $C$DW$34, DW_AT_TI_return
     283                    
     284 00000020 BD08              POP       {A4, PC}              ; [DPU_3_PIPE]  ; [ORIG 16-BIT INS]
     285                            .dwcfi  cfa_offset, 0
     286                            ; BRANCH OCCURS                  ; [] 
     287                            .dwattr $C$DW$31, DW_AT_TI_end_file("../Main_Blinky.c")
     288                            .dwattr $C$DW$31, DW_AT_TI_end_line(0x2c)
     289                            .dwattr $C$DW$31, DW_AT_TI_end_column(0x01)
     290                            .dwendentry
     291                            .dwendtag $C$DW$31
     292                    
     293 00000022                   .sect   ".text"
     294                            .clink
     295                            .thumbfunc main
     296 00000022                   .thumb
     297                            .global main
     298                    
     299                    $C$DW$35        .dwtag  DW_TAG_subprogram
     300                            .dwattr $C$DW$35, DW_AT_name("main")
     301                            .dwattr $C$DW$35, DW_AT_low_pc(main)
     302                            .dwattr $C$DW$35, DW_AT_high_pc(0x00)
     303                            .dwattr $C$DW$35, DW_AT_TI_symbol_name("main")
     304                            .dwattr $C$DW$35, DW_AT_external
     305                            .dwattr $C$DW$35, DW_AT_type(*$C$DW$T$10)
     306                            .dwattr $C$DW$35, DW_AT_TI_begin_file("../Main_Blinky.c")
     307                            .dwattr $C$DW$35, DW_AT_TI_begin_line(0x3a)
     308                            .dwattr $C$DW$35, DW_AT_TI_begin_column(0x05)
     309                            .dwattr $C$DW$35, DW_AT_decl_file("../Main_Blinky.c")
     310                            .dwattr $C$DW$35, DW_AT_decl_line(0x3a)
     311                            .dwattr $C$DW$35, DW_AT_decl_column(0x05)
     312                            .dwattr $C$DW$35, DW_AT_TI_max_frame_size(0x18)
     313                            .dwpsn  file "../Main_Blinky.c",line 58,column 18,is_stmt,address main,isa 1
     314                    
     315                            .dwfde $C$DW$CIE, main
     316                    
     317                    ;*****************************************************************************
     318                    ;* FUNCTION NAME: main                                                       *
     319                    ;*                                                                           *
     320                    ;*   Regs Modified     : A1,A2,A3,A4,V9,SP,LR,SR                             *
     321                    ;*   Regs Used         : A1,A2,A3,A4,V9,SP,LR,SR                             *
     322                    ;*   Local Frame Size  : 16 Args + 0 Auto + 4 Save = 20 byte                 *
     323                    ;*****************************************************************************
     324 00000022           main:
     325                    ;* --------------------------------------------------------------------------*
     326                            .dwcfi  cfa_offset, 0
     327 00000022 B500              PUSH      {LR}                  ; [DPU_3_PIPE]  ; [ORIG 16-BIT INS]
     328                            .dwcfi  cfa_offset, 4
     329                            .dwcfi  save_reg_to_mem, 14, -4
     330 00000024 0D14F1AD          SUB       SP, SP, #20           ; [DPU_3_PIPE]  ; [KEEP 32-BIT INS]
TI ARM Assembler PC v15.12.1 Wed Feb 22 15:20:20 2017

Tools Copyright (c) 1996-2015 Texas Instruments Incorporated
Main_Blinky.asm                                                      PAGE    7

     331                            .dwcfi  cfa_offset, 24
     332                            .dwpsn  file "../Main_Blinky.c",line 63,column 5,is_stmt,isa 1
     333 00000028 4824              LDR       A1, $C$CON3           ; [DPU_3_PIPE] |63|  ; [ORIG 16-BIT INS]
     334                    $C$DW$36        .dwtag  DW_TAG_TI_branch
     335                            .dwattr $C$DW$36, DW_AT_low_pc(0x00)
     336                            .dwattr $C$DW$36, DW_AT_name("SysCtlClockSet")
     337                            .dwattr $C$DW$36, DW_AT_TI_call
     338                    
     339 0000002a FFFEF7FF!         BL        SysCtlClockSet        ; [DPU_3_PIPE] |63|  ; [KEEP 32-BIT INS]
     340                            ; CALL OCCURS {SysCtlClockSet }  ; [] |63| 
     341                            .dwpsn  file "../Main_Blinky.c",line 69,column 2,is_stmt,isa 1
     342                    $C$DW$37        .dwtag  DW_TAG_TI_branch
     343                            .dwattr $C$DW$37, DW_AT_low_pc(0x00)
     344                            .dwattr $C$DW$37, DW_AT_name("SysCtlClockGet")
     345                            .dwattr $C$DW$37, DW_AT_TI_call
     346                    
     347 0000002e FFFEF7FF!         BL        SysCtlClockGet        ; [DPU_3_PIPE] |69|  ; [KEEP 32-BIT INS]
     348                            ; CALL OCCURS {SysCtlClockGet }  ; [] |69| 
     349 00000032 4923              LDR       A2, $C$CON4           ; [DPU_3_PIPE] |69|  ; [ORIG 16-BIT INS]
     350 00000034 6008              STR       A1, [A2, #0]          ; [DPU_3_PIPE] |69|  ; [ORIG 16-BIT INS]
     351                            .dwpsn  file "../Main_Blinky.c",line 71,column 2,is_stmt,isa 1
     352                    $C$DW$38        .dwtag  DW_TAG_TI_branch
     353                            .dwattr $C$DW$38, DW_AT_low_pc(0x00)
     354                            .dwattr $C$DW$38, DW_AT_name("UARTStdio_Initialization")
     355                            .dwattr $C$DW$38, DW_AT_TI_call
     356                    
     357 00000036 FFFEF7FF!         BL        UARTStdio_Initialization ; [DPU_3_PIPE] |71|  ; [KEEP 32-BIT INS]
     358                            ; CALL OCCURS {UARTStdio_Initialization }  ; [] |71| 
     359                            .dwpsn  file "../Main_Blinky.c",line 76,column 2,is_stmt,isa 1
     360 0000003a 2001              MOVS      A1, #1                ; [DPU_3_PIPE] |76|  ; [ORIG 16-BIT INS]
     361 0000003c 9000              STR       A1, [SP, #0]          ; [DPU_3_PIPE] |76|  ; [ORIG 16-BIT INS]
     362 0000003e 2000              MOVS      A1, #0                ; [DPU_3_PIPE] |76|  ; [ORIG 16-BIT INS]
     363 00000040 9001              STR       A1, [SP, #4]          ; [DPU_3_PIPE] |76|  ; [ORIG 16-BIT INS]
     364 00000042 2000              MOVS      A1, #0                ; [DPU_3_PIPE] |76|  ; [ORIG 16-BIT INS]
     365 00000044 9002              STR       A1, [SP, #8]          ; [DPU_3_PIPE] |76|  ; [ORIG 16-BIT INS]
     366 00000046 2000              MOVS      A1, #0                ; [DPU_3_PIPE] |76|  ; [ORIG 16-BIT INS]
     367 00000048 9003              STR       A1, [SP, #12]         ; [DPU_3_PIPE] |76|  ; [ORIG 16-BIT INS]
     368 0000004a 481E              LDR       A1, $C$CON5           ; [DPU_3_PIPE] |76|  ; [ORIG 16-BIT INS]
     369 0000004c A110              ADR       A2, $C$SL2            ; [DPU_3_PIPE] |76|  ; [ORIG 16-BIT INS]
     370 0000004e 2280              MOVS      A3, #128              ; [DPU_3_PIPE] |76|  ; [ORIG 16-BIT INS]
     371 00000050 2300              MOVS      A4, #0                ; [DPU_3_PIPE] |76|  ; [ORIG 16-BIT INS]
     372                    $C$DW$39        .dwtag  DW_TAG_TI_branch
     373                            .dwattr $C$DW$39, DW_AT_low_pc(0x00)
     374                            .dwattr $C$DW$39, DW_AT_name("xTaskGenericCreate")
     375                            .dwattr $C$DW$39, DW_AT_TI_call
     376                    
     377 00000052 FFFEF7FF!         BL        xTaskGenericCreate    ; [DPU_3_PIPE] |76|  ; [KEEP 32-BIT INS]
     378                            ; CALL OCCURS {xTaskGenericCreate }  ; [] |76| 
     379                            .dwpsn  file "../Main_Blinky.c",line 77,column 2,is_stmt,isa 1
     380 00000056 2001              MOVS      A1, #1                ; [DPU_3_PIPE] |77|  ; [ORIG 16-BIT INS]
     381 00000058 9000              STR       A1, [SP, #0]          ; [DPU_3_PIPE] |77|  ; [ORIG 16-BIT INS]
     382 0000005a 2000              MOVS      A1, #0                ; [DPU_3_PIPE] |77|  ; [ORIG 16-BIT INS]
     383 0000005c 9001              STR       A1, [SP, #4]          ; [DPU_3_PIPE] |77|  ; [ORIG 16-BIT INS]
     384 0000005e 2000              MOVS      A1, #0                ; [DPU_3_PIPE] |77|  ; [ORIG 16-BIT INS]
     385 00000060 9002              STR       A1, [SP, #8]          ; [DPU_3_PIPE] |77|  ; [ORIG 16-BIT INS]
TI ARM Assembler PC v15.12.1 Wed Feb 22 15:20:20 2017

Tools Copyright (c) 1996-2015 Texas Instruments Incorporated
Main_Blinky.asm                                                      PAGE    8

     386 00000062 2000              MOVS      A1, #0                ; [DPU_3_PIPE] |77|  ; [ORIG 16-BIT INS]
     387 00000064 9003              STR       A1, [SP, #12]         ; [DPU_3_PIPE] |77|  ; [ORIG 16-BIT INS]
     388 00000066 4818              LDR       A1, $C$CON6           ; [DPU_3_PIPE] |77|  ; [ORIG 16-BIT INS]
     389 00000068 A10B              ADR       A2, $C$SL3            ; [DPU_3_PIPE] |77|  ; [ORIG 16-BIT INS]
     390 0000006a 7280F44F          MOV       A3, #256              ; [DPU_3_PIPE] |77|  ; [KEEP 32-BIT INS]
     391 0000006e 2300              MOVS      A4, #0                ; [DPU_3_PIPE] |77|  ; [ORIG 16-BIT INS]
     392                    $C$DW$40        .dwtag  DW_TAG_TI_branch
     393                            .dwattr $C$DW$40, DW_AT_low_pc(0x00)
     394                            .dwattr $C$DW$40, DW_AT_name("xTaskGenericCreate")
     395                            .dwattr $C$DW$40, DW_AT_TI_call
     396                    
     397 00000070 FFFEF7FF!         BL        xTaskGenericCreate    ; [DPU_3_PIPE] |77|  ; [KEEP 32-BIT INS]
     398                            ; CALL OCCURS {xTaskGenericCreate }  ; [] |77| 
     399                            .dwpsn  file "../Main_Blinky.c",line 78,column 2,is_stmt,isa 1
     400 00000074 A00A              ADR       A1, $C$SL4            ; [DPU_3_PIPE] |78|  ; [ORIG 16-BIT INS]
     401                    $C$DW$41        .dwtag  DW_TAG_TI_branch
     402                            .dwattr $C$DW$41, DW_AT_low_pc(0x00)
     403                            .dwattr $C$DW$41, DW_AT_name("UARTprintf")
     404                            .dwattr $C$DW$41, DW_AT_TI_call
     405                    
     406 00000076 FFFEF7FF!         BL        UARTprintf            ; [DPU_3_PIPE] |78|  ; [KEEP 32-BIT INS]
     407                            ; CALL OCCURS {UARTprintf }      ; [] |78| 
     408                            .dwpsn  file "../Main_Blinky.c",line 83,column 2,is_stmt,isa 1
     409                    $C$DW$42        .dwtag  DW_TAG_TI_branch
     410                            .dwattr $C$DW$42, DW_AT_low_pc(0x00)
     411                            .dwattr $C$DW$42, DW_AT_name("vTaskStartScheduler")
     412                            .dwattr $C$DW$42, DW_AT_TI_call
     413                    
     414 0000007a FFFEF7FF!         BL        vTaskStartScheduler   ; [DPU_3_PIPE] |83|  ; [KEEP 32-BIT INS]
     415                            ; CALL OCCURS {vTaskStartScheduler }  ; [] |83| 
     416                            .dwpsn  file "../Main_Blinky.c",line 85,column 10,is_stmt,isa 1
     417                    ;* --------------------------------------------------------------------------*
     418                    ;*   BEGIN LOOP ||$C$L2||
     419                    ;*
     420                    ;*   Loop source line                : 85
     421                    ;*   Loop closing brace source line  : 87
     422                    ;*   Known Minimum Trip Count        : 1
     423                    ;*   Known Maximum Trip Count        : 4294967295
     424                    ;*   Known Max Trip Count Factor     : 1
     425                    ;* --------------------------------------------------------------------------*
     426 0000007e           ||$C$L2||:    
     427 0000007e E7FE              B         ||$C$L2||             ; [DPU_3_PIPE] |85|  ; [ORIG 16-BIT INS]
     428                            ; BRANCH OCCURS {||$C$L2||}      ; [] |85| 
     429                    ;* --------------------------------------------------------------------------*
     430                            .dwattr $C$DW$35, DW_AT_TI_end_file("../Main_Blinky.c")
     431                            .dwattr $C$DW$35, DW_AT_TI_end_line(0x59)
     432                            .dwattr $C$DW$35, DW_AT_TI_end_column(0x01)
     433                            .dwendentry
     434                            .dwendtag $C$DW$35
     435                    
     436                    ;******************************************************************************
     437                    ;* STRINGS                                                                    *
     438                    ;******************************************************************************
     439 00000080                   .sect   ".text"
     440                            .align  4
TI ARM Assembler PC v15.12.1 Wed Feb 22 15:20:20 2017

Tools Copyright (c) 1996-2015 Texas Instruments Incorporated
Main_Blinky.asm                                                      PAGE    9

     441 00000080 53        ||$C$SL1||:     .string "Shafeen Hossain",0
         00000081 68       
         00000082 61       
         00000083 66       
         00000084 65       
         00000085 65       
         00000086 6E       
         00000087 20       
         00000088 48       
         00000089 6F       
         0000008a 73       
         0000008b 73       
         0000008c 61       
         0000008d 69       
         0000008e 6E       
         0000008f 00       
     442                            .align  4
     443 00000090 42        ||$C$SL2||:     .string "Blinky",0
         00000091 6C       
         00000092 69       
         00000093 6E       
         00000094 6B       
         00000095 79       
         00000096 00       
     444                            .align  4
     445 00000098 52        ||$C$SL3||:     .string "Report",0
         00000099 65       
         0000009a 70       
         0000009b 6F       
         0000009c 72       
         0000009d 74       
         0000009e 00       
     446                            .align  4
     447 000000a0 46        ||$C$SL4||:     .string "FreeRTOS Starting!",10,0
         000000a1 72       
         000000a2 65       
         000000a3 65       
         000000a4 52       
         000000a5 54       
         000000a6 4F       
         000000a7 53       
         000000a8 20       
         000000a9 53       
         000000aa 74       
         000000ab 61       
         000000ac 72       
         000000ad 74       
         000000ae 69       
         000000af 6E       
         000000b0 67       
         000000b1 21       
         000000b2 0A       
         000000b3 00       
     448                    ;******************************************************************************
     449                    ;* CONSTANT TABLE                                                             *
TI ARM Assembler PC v15.12.1 Wed Feb 22 15:20:20 2017

Tools Copyright (c) 1996-2015 Texas Instruments Incorporated
Main_Blinky.asm                                                      PAGE   10

     450                    ;******************************************************************************
     451 000000b4                   .sect   ".text"
     452                            .align  4
     453 000000b4 00000000! ||$C$CON1||:    .bits   OLED_Initialized,32
     454                            .align  4
     455 000000b8 000F4240  ||$C$CON2||:    .bits   1000000,32
     456                            .align  4
     457 000000bc 01C00380  ||$C$CON3||:    .bits   29361024,32
     458                            .align  4
     459 000000c0 00000000! ||$C$CON4||:    .bits   g_ulSystemClock,32
     460                            .align  4
     461 000000c4 00000000! ||$C$CON5||:    .bits   Task_Blinky,32
     462                            .align  4
     463 000000c8 00000000! ||$C$CON6||:    .bits   Task_ReportSysTick,32
     464                    ;*****************************************************************************
     465                    ;* UNDEFINED EXTERNAL REFERENCES                                             *
     466                    ;*****************************************************************************
     467                            .global SysCtlClockSet
     468                            .global SysCtlClockGet
     469                            .global UARTStdio_Initialization
     470                            .global UARTprintf
     471                            .global vTaskStartScheduler
     472                            .global xTaskGenericCreate
     473                            .global RIT128x96x4StringDraw
     474                            .global RIT128x96x4Init
     475                            .global Task_Blinky
     476                            .global Task_ReportSysTick
     477                    
     478                    ;******************************************************************************
     479                    ;* BUILD ATTRIBUTES                                                           *
     480                    ;******************************************************************************
     481                            .battr "aeabi", Tag_File, 1, Tag_ABI_PCS_wchar_t(2)
     482                            .battr "aeabi", Tag_File, 1, Tag_ABI_FP_rounding(0)
     483                            .battr "aeabi", Tag_File, 1, Tag_ABI_FP_denormal(0)
     484                            .battr "aeabi", Tag_File, 1, Tag_ABI_FP_exceptions(0)
     485                            .battr "aeabi", Tag_File, 1, Tag_ABI_FP_number_model(1)
     486                            .battr "aeabi", Tag_File, 1, Tag_ABI_enum_size(1)
     487                            .battr "aeabi", Tag_File, 1, Tag_ABI_optimization_goals(5)
     488                            .battr "aeabi", Tag_File, 1, Tag_ABI_FP_optimization_goals(0)
     489                            .battr "TI", Tag_File, 1, Tag_Bitfield_layout(2)
     490                            .battr "TI", Tag_File, 1, Tag_FP_interface(1)
     491                    
     492                    ;******************************************************************************
     493                    ;* TYPE INFORMATION                                                           *
     494                    ;******************************************************************************
     495                    
     496                    $C$DW$T$51      .dwtag  DW_TAG_enumeration_type
     497                            .dwattr $C$DW$T$51, DW_AT_byte_size(0x01)
     498                    $C$DW$43        .dwtag  DW_TAG_enumerator
     499                            .dwattr $C$DW$43, DW_AT_name("eRunning")
     500                            .dwattr $C$DW$43, DW_AT_const_value(0x00)
     501                            .dwattr $C$DW$43, DW_AT_decl_file("H:/EECS_388/TI_ARM_Projects/FreeRTOS823_LM3S_Prototype/Sour
     502                            .dwattr $C$DW$43, DW_AT_decl_line(0x72)
     503                            .dwattr $C$DW$43, DW_AT_decl_column(0x02)
     504                    
TI ARM Assembler PC v15.12.1 Wed Feb 22 15:20:20 2017

Tools Copyright (c) 1996-2015 Texas Instruments Incorporated
Main_Blinky.asm                                                      PAGE   11

     505                    $C$DW$44        .dwtag  DW_TAG_enumerator
     506                            .dwattr $C$DW$44, DW_AT_name("eReady")
     507                            .dwattr $C$DW$44, DW_AT_const_value(0x01)
     508                            .dwattr $C$DW$44, DW_AT_decl_file("H:/EECS_388/TI_ARM_Projects/FreeRTOS823_LM3S_Prototype/Sour
     509                            .dwattr $C$DW$44, DW_AT_decl_line(0x73)
     510                            .dwattr $C$DW$44, DW_AT_decl_column(0x02)
     511                    
     512                    $C$DW$45        .dwtag  DW_TAG_enumerator
     513                            .dwattr $C$DW$45, DW_AT_name("eBlocked")
     514                            .dwattr $C$DW$45, DW_AT_const_value(0x02)
     515                            .dwattr $C$DW$45, DW_AT_decl_file("H:/EECS_388/TI_ARM_Projects/FreeRTOS823_LM3S_Prototype/Sour
     516                            .dwattr $C$DW$45, DW_AT_decl_line(0x74)
     517                            .dwattr $C$DW$45, DW_AT_decl_column(0x02)
     518                    
     519                    $C$DW$46        .dwtag  DW_TAG_enumerator
     520                            .dwattr $C$DW$46, DW_AT_name("eSuspended")
     521                            .dwattr $C$DW$46, DW_AT_const_value(0x03)
     522                            .dwattr $C$DW$46, DW_AT_decl_file("H:/EECS_388/TI_ARM_Projects/FreeRTOS823_LM3S_Prototype/Sour
     523                            .dwattr $C$DW$46, DW_AT_decl_line(0x75)
     524                            .dwattr $C$DW$46, DW_AT_decl_column(0x02)
     525                    
     526                    $C$DW$47        .dwtag  DW_TAG_enumerator
     527                            .dwattr $C$DW$47, DW_AT_name("eDeleted")
     528                            .dwattr $C$DW$47, DW_AT_const_value(0x04)
     529                            .dwattr $C$DW$47, DW_AT_decl_file("H:/EECS_388/TI_ARM_Projects/FreeRTOS823_LM3S_Prototype/Sour
     530                            .dwattr $C$DW$47, DW_AT_decl_line(0x76)
     531                            .dwattr $C$DW$47, DW_AT_decl_column(0x02)
     532                    
     533                            .dwattr $C$DW$T$51, DW_AT_decl_file("H:/EECS_388/TI_ARM_Projects/FreeRTOS823_LM3S_Prototype/So
     534                            .dwattr $C$DW$T$51, DW_AT_decl_line(0x71)
     535                            .dwattr $C$DW$T$51, DW_AT_decl_column(0x01)
     536                            .dwendtag $C$DW$T$51
     537                    
     538                    $C$DW$T$52      .dwtag  DW_TAG_typedef
     539                            .dwattr $C$DW$T$52, DW_AT_name("eTaskState")
     540                            .dwattr $C$DW$T$52, DW_AT_type(*$C$DW$T$51)
     541                            .dwattr $C$DW$T$52, DW_AT_language(DW_LANG_C)
     542                            .dwattr $C$DW$T$52, DW_AT_decl_file("H:/EECS_388/TI_ARM_Projects/FreeRTOS823_LM3S_Prototype/So
     543                            .dwattr $C$DW$T$52, DW_AT_decl_line(0x77)
     544                            .dwattr $C$DW$T$52, DW_AT_decl_column(0x03)
     545                    
     546                    
     547                    $C$DW$T$57      .dwtag  DW_TAG_enumeration_type
     548                            .dwattr $C$DW$T$57, DW_AT_byte_size(0x01)
     549                    $C$DW$48        .dwtag  DW_TAG_enumerator
     550                            .dwattr $C$DW$48, DW_AT_name("eNoAction")
     551                            .dwattr $C$DW$48, DW_AT_const_value(0x00)
     552                            .dwattr $C$DW$48, DW_AT_decl_file("H:/EECS_388/TI_ARM_Projects/FreeRTOS823_LM3S_Prototype/Sour
     553                            .dwattr $C$DW$48, DW_AT_decl_line(0x7c)
     554                            .dwattr $C$DW$48, DW_AT_decl_column(0x02)
     555                    
     556                    $C$DW$49        .dwtag  DW_TAG_enumerator
     557                            .dwattr $C$DW$49, DW_AT_name("eSetBits")
     558                            .dwattr $C$DW$49, DW_AT_const_value(0x01)
     559                            .dwattr $C$DW$49, DW_AT_decl_file("H:/EECS_388/TI_ARM_Projects/FreeRTOS823_LM3S_Prototype/Sour
TI ARM Assembler PC v15.12.1 Wed Feb 22 15:20:20 2017

Tools Copyright (c) 1996-2015 Texas Instruments Incorporated
Main_Blinky.asm                                                      PAGE   12

     560                            .dwattr $C$DW$49, DW_AT_decl_line(0x7d)
     561                            .dwattr $C$DW$49, DW_AT_decl_column(0x02)
     562                    
     563                    $C$DW$50        .dwtag  DW_TAG_enumerator
     564                            .dwattr $C$DW$50, DW_AT_name("eIncrement")
     565                            .dwattr $C$DW$50, DW_AT_const_value(0x02)
     566                            .dwattr $C$DW$50, DW_AT_decl_file("H:/EECS_388/TI_ARM_Projects/FreeRTOS823_LM3S_Prototype/Sour
     567                            .dwattr $C$DW$50, DW_AT_decl_line(0x7e)
     568                            .dwattr $C$DW$50, DW_AT_decl_column(0x02)
     569                    
     570                    $C$DW$51        .dwtag  DW_TAG_enumerator
     571                            .dwattr $C$DW$51, DW_AT_name("eSetValueWithOverwrite")
     572                            .dwattr $C$DW$51, DW_AT_const_value(0x03)
     573                            .dwattr $C$DW$51, DW_AT_decl_file("H:/EECS_388/TI_ARM_Projects/FreeRTOS823_LM3S_Prototype/Sour
     574                            .dwattr $C$DW$51, DW_AT_decl_line(0x7f)
     575                            .dwattr $C$DW$51, DW_AT_decl_column(0x02)
     576                    
     577                    $C$DW$52        .dwtag  DW_TAG_enumerator
     578                            .dwattr $C$DW$52, DW_AT_name("eSetValueWithoutOverwrite")
     579                            .dwattr $C$DW$52, DW_AT_const_value(0x04)
     580                            .dwattr $C$DW$52, DW_AT_decl_file("H:/EECS_388/TI_ARM_Projects/FreeRTOS823_LM3S_Prototype/Sour
     581                            .dwattr $C$DW$52, DW_AT_decl_line(0x80)
     582                            .dwattr $C$DW$52, DW_AT_decl_column(0x02)
     583                    
     584                            .dwattr $C$DW$T$57, DW_AT_decl_file("H:/EECS_388/TI_ARM_Projects/FreeRTOS823_LM3S_Prototype/So
     585                            .dwattr $C$DW$T$57, DW_AT_decl_line(0x7b)
     586                            .dwattr $C$DW$T$57, DW_AT_decl_column(0x01)
     587                            .dwendtag $C$DW$T$57
     588                    
     589                    $C$DW$T$58      .dwtag  DW_TAG_typedef
     590                            .dwattr $C$DW$T$58, DW_AT_name("eNotifyAction")
     591                            .dwattr $C$DW$T$58, DW_AT_type(*$C$DW$T$57)
     592                            .dwattr $C$DW$T$58, DW_AT_language(DW_LANG_C)
     593                            .dwattr $C$DW$T$58, DW_AT_decl_file("H:/EECS_388/TI_ARM_Projects/FreeRTOS823_LM3S_Prototype/So
     594                            .dwattr $C$DW$T$58, DW_AT_decl_line(0x81)
     595                            .dwattr $C$DW$T$58, DW_AT_decl_column(0x03)
     596                    
     597                    
     598                    $C$DW$T$59      .dwtag  DW_TAG_enumeration_type
     599                            .dwattr $C$DW$T$59, DW_AT_byte_size(0x01)
     600                    $C$DW$53        .dwtag  DW_TAG_enumerator
     601                            .dwattr $C$DW$53, DW_AT_name("eAbortSleep")
     602                            .dwattr $C$DW$53, DW_AT_const_value(0x00)
     603                            .dwattr $C$DW$53, DW_AT_decl_file("H:/EECS_388/TI_ARM_Projects/FreeRTOS823_LM3S_Prototype/Sour
     604                            .dwattr $C$DW$53, DW_AT_decl_line(0xb5)
     605                            .dwattr $C$DW$53, DW_AT_decl_column(0x02)
     606                    
     607                    $C$DW$54        .dwtag  DW_TAG_enumerator
     608                            .dwattr $C$DW$54, DW_AT_name("eStandardSleep")
     609                            .dwattr $C$DW$54, DW_AT_const_value(0x01)
     610                            .dwattr $C$DW$54, DW_AT_decl_file("H:/EECS_388/TI_ARM_Projects/FreeRTOS823_LM3S_Prototype/Sour
     611                            .dwattr $C$DW$54, DW_AT_decl_line(0xb6)
     612                            .dwattr $C$DW$54, DW_AT_decl_column(0x02)
     613                    
     614                    $C$DW$55        .dwtag  DW_TAG_enumerator
TI ARM Assembler PC v15.12.1 Wed Feb 22 15:20:20 2017

Tools Copyright (c) 1996-2015 Texas Instruments Incorporated
Main_Blinky.asm                                                      PAGE   13

     615                            .dwattr $C$DW$55, DW_AT_name("eNoTasksWaitingTimeout")
     616                            .dwattr $C$DW$55, DW_AT_const_value(0x02)
     617                            .dwattr $C$DW$55, DW_AT_decl_file("H:/EECS_388/TI_ARM_Projects/FreeRTOS823_LM3S_Prototype/Sour
     618                            .dwattr $C$DW$55, DW_AT_decl_line(0xb7)
     619                            .dwattr $C$DW$55, DW_AT_decl_column(0x02)
     620                    
     621                            .dwattr $C$DW$T$59, DW_AT_decl_file("H:/EECS_388/TI_ARM_Projects/FreeRTOS823_LM3S_Prototype/So
     622                            .dwattr $C$DW$T$59, DW_AT_decl_line(0xb4)
     623                            .dwattr $C$DW$T$59, DW_AT_decl_column(0x01)
     624                            .dwendtag $C$DW$T$59
     625                    
     626                    $C$DW$T$60      .dwtag  DW_TAG_typedef
     627                            .dwattr $C$DW$T$60, DW_AT_name("eSleepModeStatus")
     628                            .dwattr $C$DW$T$60, DW_AT_type(*$C$DW$T$59)
     629                            .dwattr $C$DW$T$60, DW_AT_language(DW_LANG_C)
     630                            .dwattr $C$DW$T$60, DW_AT_decl_file("H:/EECS_388/TI_ARM_Projects/FreeRTOS823_LM3S_Prototype/So
     631                            .dwattr $C$DW$T$60, DW_AT_decl_line(0xb8)
     632                            .dwattr $C$DW$T$60, DW_AT_decl_column(0x03)
     633                    
     634                    
     635                    $C$DW$T$20      .dwtag  DW_TAG_structure_type
     636                            .dwattr $C$DW$T$20, DW_AT_byte_size(0x18)
     637                    $C$DW$56        .dwtag  DW_TAG_member
     638                            .dwattr $C$DW$56, DW_AT_type(*$C$DW$T$10)
     639                            .dwattr $C$DW$56, DW_AT_name("fd")
     640                            .dwattr $C$DW$56, DW_AT_TI_symbol_name("fd")
     641                            .dwattr $C$DW$56, DW_AT_data_member_location[DW_OP_plus_uconst 0x0]
     642                            .dwattr $C$DW$56, DW_AT_accessibility(DW_ACCESS_public)
     643                            .dwattr $C$DW$56, DW_AT_decl_file("C:/TI_CodeComposer/ccsv6/tools/compiler/ti-cgt-arm_15.12.1.
     644                            .dwattr $C$DW$56, DW_AT_decl_line(0x5c)
     645                            .dwattr $C$DW$56, DW_AT_decl_column(0x0b)
     646                    
     647                    $C$DW$57        .dwtag  DW_TAG_member
     648                            .dwattr $C$DW$57, DW_AT_type(*$C$DW$T$19)
     649                            .dwattr $C$DW$57, DW_AT_name("buf")
     650                            .dwattr $C$DW$57, DW_AT_TI_symbol_name("buf")
     651                            .dwattr $C$DW$57, DW_AT_data_member_location[DW_OP_plus_uconst 0x4]
     652                            .dwattr $C$DW$57, DW_AT_accessibility(DW_ACCESS_public)
     653                            .dwattr $C$DW$57, DW_AT_decl_file("C:/TI_CodeComposer/ccsv6/tools/compiler/ti-cgt-arm_15.12.1.
     654                            .dwattr $C$DW$57, DW_AT_decl_line(0x5d)
     655                            .dwattr $C$DW$57, DW_AT_decl_column(0x16)
     656                    
     657                    $C$DW$58        .dwtag  DW_TAG_member
     658                            .dwattr $C$DW$58, DW_AT_type(*$C$DW$T$19)
     659                            .dwattr $C$DW$58, DW_AT_name("pos")
     660                            .dwattr $C$DW$58, DW_AT_TI_symbol_name("pos")
     661                            .dwattr $C$DW$58, DW_AT_data_member_location[DW_OP_plus_uconst 0x8]
     662                            .dwattr $C$DW$58, DW_AT_accessibility(DW_ACCESS_public)
     663                            .dwattr $C$DW$58, DW_AT_decl_file("C:/TI_CodeComposer/ccsv6/tools/compiler/ti-cgt-arm_15.12.1.
     664                            .dwattr $C$DW$58, DW_AT_decl_line(0x5e)
     665                            .dwattr $C$DW$58, DW_AT_decl_column(0x16)
     666                    
     667                    $C$DW$59        .dwtag  DW_TAG_member
     668                            .dwattr $C$DW$59, DW_AT_type(*$C$DW$T$19)
     669                            .dwattr $C$DW$59, DW_AT_name("bufend")
TI ARM Assembler PC v15.12.1 Wed Feb 22 15:20:20 2017

Tools Copyright (c) 1996-2015 Texas Instruments Incorporated
Main_Blinky.asm                                                      PAGE   14

     670                            .dwattr $C$DW$59, DW_AT_TI_symbol_name("bufend")
     671                            .dwattr $C$DW$59, DW_AT_data_member_location[DW_OP_plus_uconst 0xc]
     672                            .dwattr $C$DW$59, DW_AT_accessibility(DW_ACCESS_public)
     673                            .dwattr $C$DW$59, DW_AT_decl_file("C:/TI_CodeComposer/ccsv6/tools/compiler/ti-cgt-arm_15.12.1.
     674                            .dwattr $C$DW$59, DW_AT_decl_line(0x5f)
     675                            .dwattr $C$DW$59, DW_AT_decl_column(0x16)
     676                    
     677                    $C$DW$60        .dwtag  DW_TAG_member
     678                            .dwattr $C$DW$60, DW_AT_type(*$C$DW$T$19)
     679                            .dwattr $C$DW$60, DW_AT_name("buff_stop")
     680                            .dwattr $C$DW$60, DW_AT_TI_symbol_name("buff_stop")
     681                            .dwattr $C$DW$60, DW_AT_data_member_location[DW_OP_plus_uconst 0x10]
     682                            .dwattr $C$DW$60, DW_AT_accessibility(DW_ACCESS_public)
     683                            .dwattr $C$DW$60, DW_AT_decl_file("C:/TI_CodeComposer/ccsv6/tools/compiler/ti-cgt-arm_15.12.1.
     684                            .dwattr $C$DW$60, DW_AT_decl_line(0x60)
     685                            .dwattr $C$DW$60, DW_AT_decl_column(0x16)
     686                    
     687                    $C$DW$61        .dwtag  DW_TAG_member
     688                            .dwattr $C$DW$61, DW_AT_type(*$C$DW$T$11)
     689                            .dwattr $C$DW$61, DW_AT_name("flags")
     690                            .dwattr $C$DW$61, DW_AT_TI_symbol_name("flags")
     691                            .dwattr $C$DW$61, DW_AT_data_member_location[DW_OP_plus_uconst 0x14]
     692                            .dwattr $C$DW$61, DW_AT_accessibility(DW_ACCESS_public)
     693                            .dwattr $C$DW$61, DW_AT_decl_file("C:/TI_CodeComposer/ccsv6/tools/compiler/ti-cgt-arm_15.12.1.
     694                            .dwattr $C$DW$61, DW_AT_decl_line(0x61)
     695                            .dwattr $C$DW$61, DW_AT_decl_column(0x16)
     696                    
     697                            .dwattr $C$DW$T$20, DW_AT_decl_file("C:/TI_CodeComposer/ccsv6/tools/compiler/ti-cgt-arm_15.12.
     698                            .dwattr $C$DW$T$20, DW_AT_decl_line(0x5b)
     699                            .dwattr $C$DW$T$20, DW_AT_decl_column(0x10)
     700                            .dwendtag $C$DW$T$20
     701                    
     702                    $C$DW$T$61      .dwtag  DW_TAG_typedef
     703                            .dwattr $C$DW$T$61, DW_AT_name("FILE")
     704                            .dwattr $C$DW$T$61, DW_AT_type(*$C$DW$T$20)
     705                            .dwattr $C$DW$T$61, DW_AT_language(DW_LANG_C)
     706                            .dwattr $C$DW$T$61, DW_AT_decl_file("C:/TI_CodeComposer/ccsv6/tools/compiler/ti-cgt-arm_15.12.
     707                            .dwattr $C$DW$T$61, DW_AT_decl_line(0x62)
     708                            .dwattr $C$DW$T$61, DW_AT_decl_column(0x03)
     709                    
     710                    
     711                    $C$DW$T$24      .dwtag  DW_TAG_structure_type
     712                            .dwattr $C$DW$T$24, DW_AT_name("HeapRegion")
     713                            .dwattr $C$DW$T$24, DW_AT_byte_size(0x08)
     714                    $C$DW$62        .dwtag  DW_TAG_member
     715                            .dwattr $C$DW$62, DW_AT_type(*$C$DW$T$22)
     716                            .dwattr $C$DW$62, DW_AT_name("pucStartAddress")
     717                            .dwattr $C$DW$62, DW_AT_TI_symbol_name("pucStartAddress")
     718                            .dwattr $C$DW$62, DW_AT_data_member_location[DW_OP_plus_uconst 0x0]
     719                            .dwattr $C$DW$62, DW_AT_accessibility(DW_ACCESS_public)
     720                            .dwattr $C$DW$62, DW_AT_decl_file("H:\EECS_388\TI_ARM_Projects\FreeRTOS823_LM3S_Prototype\Sour
     721                            .dwattr $C$DW$62, DW_AT_decl_line(0x96)
     722                            .dwattr $C$DW$62, DW_AT_decl_column(0x0b)
     723                    
     724                    $C$DW$63        .dwtag  DW_TAG_member
TI ARM Assembler PC v15.12.1 Wed Feb 22 15:20:20 2017

Tools Copyright (c) 1996-2015 Texas Instruments Incorporated
Main_Blinky.asm                                                      PAGE   15

     725                            .dwattr $C$DW$63, DW_AT_type(*$C$DW$T$23)
     726                            .dwattr $C$DW$63, DW_AT_name("xSizeInBytes")
     727                            .dwattr $C$DW$63, DW_AT_TI_symbol_name("xSizeInBytes")
     728                            .dwattr $C$DW$63, DW_AT_data_member_location[DW_OP_plus_uconst 0x4]
     729                            .dwattr $C$DW$63, DW_AT_accessibility(DW_ACCESS_public)
     730                            .dwattr $C$DW$63, DW_AT_decl_file("H:\EECS_388\TI_ARM_Projects\FreeRTOS823_LM3S_Prototype\Sour
     731                            .dwattr $C$DW$63, DW_AT_decl_line(0x97)
     732                            .dwattr $C$DW$63, DW_AT_decl_column(0x09)
     733                    
     734                            .dwattr $C$DW$T$24, DW_AT_decl_file("H:\EECS_388\TI_ARM_Projects\FreeRTOS823_LM3S_Prototype\So
     735                            .dwattr $C$DW$T$24, DW_AT_decl_line(0x94)
     736                            .dwattr $C$DW$T$24, DW_AT_decl_column(0x10)
     737                            .dwendtag $C$DW$T$24
     738                    
     739                    $C$DW$T$62      .dwtag  DW_TAG_typedef
     740                            .dwattr $C$DW$T$62, DW_AT_name("HeapRegion_t")
     741                            .dwattr $C$DW$T$62, DW_AT_type(*$C$DW$T$24)
     742                            .dwattr $C$DW$T$62, DW_AT_language(DW_LANG_C)
     743                            .dwattr $C$DW$T$62, DW_AT_decl_file("H:\EECS_388\TI_ARM_Projects\FreeRTOS823_LM3S_Prototype\So
     744                            .dwattr $C$DW$T$62, DW_AT_decl_line(0x98)
     745                            .dwattr $C$DW$T$62, DW_AT_decl_column(0x03)
     746                    
     747                    $C$DW$T$2       .dwtag  DW_TAG_unspecified_type
     748                            .dwattr $C$DW$T$2, DW_AT_name("void")
     749                    
     750                    $C$DW$T$3       .dwtag  DW_TAG_pointer_type
     751                            .dwattr $C$DW$T$3, DW_AT_type(*$C$DW$T$2)
     752                            .dwattr $C$DW$T$3, DW_AT_address_class(0x20)
     753                    
     754                    $C$DW$T$50      .dwtag  DW_TAG_typedef
     755                            .dwattr $C$DW$T$50, DW_AT_name("TaskHandle_t")
     756                            .dwattr $C$DW$T$50, DW_AT_type(*$C$DW$T$3)
     757                            .dwattr $C$DW$T$50, DW_AT_language(DW_LANG_C)
     758                            .dwattr $C$DW$T$50, DW_AT_decl_file("H:/EECS_388/TI_ARM_Projects/FreeRTOS823_LM3S_Prototype/So
     759                            .dwattr $C$DW$T$50, DW_AT_decl_line(0x67)
     760                            .dwattr $C$DW$T$50, DW_AT_decl_column(0x10)
     761                    
     762                    $C$DW$T$63      .dwtag  DW_TAG_pointer_type
     763                            .dwattr $C$DW$T$63, DW_AT_type(*$C$DW$T$50)
     764                            .dwattr $C$DW$T$63, DW_AT_address_class(0x20)
     765                    
     766                    $C$DW$T$64      .dwtag  DW_TAG_const_type
     767                            .dwattr $C$DW$T$64, DW_AT_type(*$C$DW$T$63)
     768                    
     769                    $C$DW$T$65      .dwtag  DW_TAG_const_type
     770                            .dwattr $C$DW$T$65, DW_AT_type(*$C$DW$T$3)
     771                    
     772                    
     773                    $C$DW$T$37      .dwtag  DW_TAG_subroutine_type
     774                            .dwattr $C$DW$T$37, DW_AT_language(DW_LANG_C)
     775                    $C$DW$64        .dwtag  DW_TAG_formal_parameter
     776                            .dwattr $C$DW$64, DW_AT_type(*$C$DW$T$3)
     777                    
     778                            .dwendtag $C$DW$T$37
     779                    
TI ARM Assembler PC v15.12.1 Wed Feb 22 15:20:20 2017

Tools Copyright (c) 1996-2015 Texas Instruments Incorporated
Main_Blinky.asm                                                      PAGE   16

     780                    $C$DW$T$38      .dwtag  DW_TAG_pointer_type
     781                            .dwattr $C$DW$T$38, DW_AT_type(*$C$DW$T$37)
     782                            .dwattr $C$DW$T$38, DW_AT_address_class(0x20)
     783                    
     784                    $C$DW$T$39      .dwtag  DW_TAG_typedef
     785                            .dwattr $C$DW$T$39, DW_AT_name("TaskFunction_t")
     786                            .dwattr $C$DW$T$39, DW_AT_type(*$C$DW$T$38)
     787                            .dwattr $C$DW$T$39, DW_AT_language(DW_LANG_C)
     788                            .dwattr $C$DW$T$39, DW_AT_decl_file("H:\EECS_388\TI_ARM_Projects\FreeRTOS823_LM3S_Prototype\So
     789                            .dwattr $C$DW$T$39, DW_AT_decl_line(0x4d)
     790                            .dwattr $C$DW$T$39, DW_AT_decl_column(0x10)
     791                    
     792                    $C$DW$T$4       .dwtag  DW_TAG_base_type
     793                            .dwattr $C$DW$T$4, DW_AT_encoding(DW_ATE_boolean)
     794                            .dwattr $C$DW$T$4, DW_AT_name("bool")
     795                            .dwattr $C$DW$T$4, DW_AT_byte_size(0x01)
     796                    
     797                    $C$DW$T$5       .dwtag  DW_TAG_base_type
     798                            .dwattr $C$DW$T$5, DW_AT_encoding(DW_ATE_signed_char)
     799                            .dwattr $C$DW$T$5, DW_AT_name("signed char")
     800                            .dwattr $C$DW$T$5, DW_AT_byte_size(0x01)
     801                    
     802                    $C$DW$T$75      .dwtag  DW_TAG_typedef
     803                            .dwattr $C$DW$T$75, DW_AT_name("int8_t")
     804                            .dwattr $C$DW$T$75, DW_AT_type(*$C$DW$T$5)
     805                            .dwattr $C$DW$T$75, DW_AT_language(DW_LANG_C)
     806                            .dwattr $C$DW$T$75, DW_AT_decl_file("C:/TI_CodeComposer/ccsv6/tools/compiler/ti-cgt-arm_15.12.
     807                            .dwattr $C$DW$T$75, DW_AT_decl_line(0x2a)
     808                            .dwattr $C$DW$T$75, DW_AT_decl_column(0x1d)
     809                    
     810                    $C$DW$T$76      .dwtag  DW_TAG_typedef
     811                            .dwattr $C$DW$T$76, DW_AT_name("int_least8_t")
     812                            .dwattr $C$DW$T$76, DW_AT_type(*$C$DW$T$75)
     813                            .dwattr $C$DW$T$76, DW_AT_language(DW_LANG_C)
     814                            .dwattr $C$DW$T$76, DW_AT_decl_file("C:/TI_CodeComposer/ccsv6/tools/compiler/ti-cgt-arm_15.12.
     815                            .dwattr $C$DW$T$76, DW_AT_decl_line(0x37)
     816                            .dwattr $C$DW$T$76, DW_AT_decl_column(0x17)
     817                    
     818                    $C$DW$T$6       .dwtag  DW_TAG_base_type
     819                            .dwattr $C$DW$T$6, DW_AT_encoding(DW_ATE_unsigned_char)
     820                            .dwattr $C$DW$T$6, DW_AT_name("unsigned char")
     821                            .dwattr $C$DW$T$6, DW_AT_byte_size(0x01)
     822                    
     823                    $C$DW$T$19      .dwtag  DW_TAG_pointer_type
     824                            .dwattr $C$DW$T$19, DW_AT_type(*$C$DW$T$6)
     825                            .dwattr $C$DW$T$19, DW_AT_address_class(0x20)
     826                    
     827                    $C$DW$T$77      .dwtag  DW_TAG_typedef
     828                            .dwattr $C$DW$T$77, DW_AT_name("tBoolean")
     829                            .dwattr $C$DW$T$77, DW_AT_type(*$C$DW$T$6)
     830                            .dwattr $C$DW$T$77, DW_AT_language(DW_LANG_C)
     831                            .dwattr $C$DW$T$77, DW_AT_decl_file("C:/TI_CodeComposer/StellarisWare-LM3S1968/inc/hw_types.h"
     832                            .dwattr $C$DW$T$77, DW_AT_decl_line(0x30)
     833                            .dwattr $C$DW$T$77, DW_AT_decl_column(0x17)
     834                    
TI ARM Assembler PC v15.12.1 Wed Feb 22 15:20:20 2017

Tools Copyright (c) 1996-2015 Texas Instruments Incorporated
Main_Blinky.asm                                                      PAGE   17

     835                    $C$DW$T$21      .dwtag  DW_TAG_typedef
     836                            .dwattr $C$DW$T$21, DW_AT_name("uint8_t")
     837                            .dwattr $C$DW$T$21, DW_AT_type(*$C$DW$T$6)
     838                            .dwattr $C$DW$T$21, DW_AT_language(DW_LANG_C)
     839                            .dwattr $C$DW$T$21, DW_AT_decl_file("C:/TI_CodeComposer/ccsv6/tools/compiler/ti-cgt-arm_15.12.
     840                            .dwattr $C$DW$T$21, DW_AT_decl_line(0x2b)
     841                            .dwattr $C$DW$T$21, DW_AT_decl_column(0x1c)
     842                    
     843                    $C$DW$T$22      .dwtag  DW_TAG_pointer_type
     844                            .dwattr $C$DW$T$22, DW_AT_type(*$C$DW$T$21)
     845                            .dwattr $C$DW$T$22, DW_AT_address_class(0x20)
     846                    
     847                    $C$DW$T$78      .dwtag  DW_TAG_typedef
     848                            .dwattr $C$DW$T$78, DW_AT_name("portCHAR")
     849                            .dwattr $C$DW$T$78, DW_AT_type(*$C$DW$T$21)
     850                            .dwattr $C$DW$T$78, DW_AT_language(DW_LANG_C)
     851                            .dwattr $C$DW$T$78, DW_AT_decl_file("H:/EECS_388/TI_ARM_Projects/FreeRTOS823_LM3S_Prototype/So
     852                            .dwattr $C$DW$T$78, DW_AT_decl_line(0x66)
     853                            .dwattr $C$DW$T$78, DW_AT_decl_column(0x12)
     854                    
     855                    $C$DW$T$79      .dwtag  DW_TAG_typedef
     856                            .dwattr $C$DW$T$79, DW_AT_name("uint_least8_t")
     857                            .dwattr $C$DW$T$79, DW_AT_type(*$C$DW$T$21)
     858                            .dwattr $C$DW$T$79, DW_AT_language(DW_LANG_C)
     859                            .dwattr $C$DW$T$79, DW_AT_decl_file("C:/TI_CodeComposer/ccsv6/tools/compiler/ti-cgt-arm_15.12.
     860                            .dwattr $C$DW$T$79, DW_AT_decl_line(0x38)
     861                            .dwattr $C$DW$T$79, DW_AT_decl_column(0x16)
     862                    
     863                    $C$DW$T$7       .dwtag  DW_TAG_base_type
     864                            .dwattr $C$DW$T$7, DW_AT_encoding(DW_ATE_signed_char)
     865                            .dwattr $C$DW$T$7, DW_AT_name("wchar_t")
     866                            .dwattr $C$DW$T$7, DW_AT_byte_size(0x02)
     867                    
     868                    $C$DW$T$8       .dwtag  DW_TAG_base_type
     869                            .dwattr $C$DW$T$8, DW_AT_encoding(DW_ATE_signed)
     870                            .dwattr $C$DW$T$8, DW_AT_name("short")
     871                            .dwattr $C$DW$T$8, DW_AT_byte_size(0x02)
     872                    
     873                    $C$DW$T$80      .dwtag  DW_TAG_typedef
     874                            .dwattr $C$DW$T$80, DW_AT_name("int16_t")
     875                            .dwattr $C$DW$T$80, DW_AT_type(*$C$DW$T$8)
     876                            .dwattr $C$DW$T$80, DW_AT_language(DW_LANG_C)
     877                            .dwattr $C$DW$T$80, DW_AT_decl_file("C:/TI_CodeComposer/ccsv6/tools/compiler/ti-cgt-arm_15.12.
     878                            .dwattr $C$DW$T$80, DW_AT_decl_line(0x2c)
     879                            .dwattr $C$DW$T$80, DW_AT_decl_column(0x1d)
     880                    
     881                    $C$DW$T$81      .dwtag  DW_TAG_typedef
     882                            .dwattr $C$DW$T$81, DW_AT_name("int_least16_t")
     883                            .dwattr $C$DW$T$81, DW_AT_type(*$C$DW$T$80)
     884                            .dwattr $C$DW$T$81, DW_AT_language(DW_LANG_C)
     885                            .dwattr $C$DW$T$81, DW_AT_decl_file("C:/TI_CodeComposer/ccsv6/tools/compiler/ti-cgt-arm_15.12.
     886                            .dwattr $C$DW$T$81, DW_AT_decl_line(0x3a)
     887                            .dwattr $C$DW$T$81, DW_AT_decl_column(0x17)
     888                    
     889                    $C$DW$T$82      .dwtag  DW_TAG_typedef
TI ARM Assembler PC v15.12.1 Wed Feb 22 15:20:20 2017

Tools Copyright (c) 1996-2015 Texas Instruments Incorporated
Main_Blinky.asm                                                      PAGE   18

     890                            .dwattr $C$DW$T$82, DW_AT_name("portSHORT")
     891                            .dwattr $C$DW$T$82, DW_AT_type(*$C$DW$T$80)
     892                            .dwattr $C$DW$T$82, DW_AT_language(DW_LANG_C)
     893                            .dwattr $C$DW$T$82, DW_AT_decl_file("H:/EECS_388/TI_ARM_Projects/FreeRTOS823_LM3S_Prototype/So
     894                            .dwattr $C$DW$T$82, DW_AT_decl_line(0x6a)
     895                            .dwattr $C$DW$T$82, DW_AT_decl_column(0x12)
     896                    
     897                    $C$DW$T$9       .dwtag  DW_TAG_base_type
     898                            .dwattr $C$DW$T$9, DW_AT_encoding(DW_ATE_unsigned)
     899                            .dwattr $C$DW$T$9, DW_AT_name("unsigned short")
     900                            .dwattr $C$DW$T$9, DW_AT_byte_size(0x02)
     901                    
     902                    $C$DW$T$44      .dwtag  DW_TAG_typedef
     903                            .dwattr $C$DW$T$44, DW_AT_name("uint16_t")
     904                            .dwattr $C$DW$T$44, DW_AT_type(*$C$DW$T$9)
     905                            .dwattr $C$DW$T$44, DW_AT_language(DW_LANG_C)
     906                            .dwattr $C$DW$T$44, DW_AT_decl_file("C:/TI_CodeComposer/ccsv6/tools/compiler/ti-cgt-arm_15.12.
     907                            .dwattr $C$DW$T$44, DW_AT_decl_line(0x2d)
     908                            .dwattr $C$DW$T$44, DW_AT_decl_column(0x1c)
     909                    
     910                    $C$DW$T$83      .dwtag  DW_TAG_const_type
     911                            .dwattr $C$DW$T$83, DW_AT_type(*$C$DW$T$44)
     912                    
     913                    $C$DW$T$84      .dwtag  DW_TAG_typedef
     914                            .dwattr $C$DW$T$84, DW_AT_name("uint_least16_t")
     915                            .dwattr $C$DW$T$84, DW_AT_type(*$C$DW$T$44)
     916                            .dwattr $C$DW$T$84, DW_AT_language(DW_LANG_C)
     917                            .dwattr $C$DW$T$84, DW_AT_decl_file("C:/TI_CodeComposer/ccsv6/tools/compiler/ti-cgt-arm_15.12.
     918                            .dwattr $C$DW$T$84, DW_AT_decl_line(0x3b)
     919                            .dwattr $C$DW$T$84, DW_AT_decl_column(0x16)
     920                    
     921                    $C$DW$T$85      .dwtag  DW_TAG_typedef
     922                            .dwattr $C$DW$T$85, DW_AT_name("wchar_t")
     923                            .dwattr $C$DW$T$85, DW_AT_type(*$C$DW$T$9)
     924                            .dwattr $C$DW$T$85, DW_AT_language(DW_LANG_C)
     925                            .dwattr $C$DW$T$85, DW_AT_decl_file("C:/TI_CodeComposer/ccsv6/tools/compiler/ti-cgt-arm_15.12.
     926                            .dwattr $C$DW$T$85, DW_AT_decl_line(0x41)
     927                            .dwattr $C$DW$T$85, DW_AT_decl_column(0x1a)
     928                    
     929                    $C$DW$T$10      .dwtag  DW_TAG_base_type
     930                            .dwattr $C$DW$T$10, DW_AT_encoding(DW_ATE_signed)
     931                            .dwattr $C$DW$T$10, DW_AT_name("int")
     932                            .dwattr $C$DW$T$10, DW_AT_byte_size(0x04)
     933                    
     934                    $C$DW$T$54      .dwtag  DW_TAG_typedef
     935                            .dwattr $C$DW$T$54, DW_AT_name("int32_t")
     936                            .dwattr $C$DW$T$54, DW_AT_type(*$C$DW$T$10)
     937                            .dwattr $C$DW$T$54, DW_AT_language(DW_LANG_C)
     938                            .dwattr $C$DW$T$54, DW_AT_decl_file("C:/TI_CodeComposer/ccsv6/tools/compiler/ti-cgt-arm_15.12.
     939                            .dwattr $C$DW$T$54, DW_AT_decl_line(0x2e)
     940                            .dwattr $C$DW$T$54, DW_AT_decl_column(0x1d)
     941                    
     942                    $C$DW$T$55      .dwtag  DW_TAG_typedef
     943                            .dwattr $C$DW$T$55, DW_AT_name("BaseType_t")
     944                            .dwattr $C$DW$T$55, DW_AT_type(*$C$DW$T$54)
TI ARM Assembler PC v15.12.1 Wed Feb 22 15:20:20 2017

Tools Copyright (c) 1996-2015 Texas Instruments Incorporated
Main_Blinky.asm                                                      PAGE   19

     945                            .dwattr $C$DW$T$55, DW_AT_language(DW_LANG_C)
     946                            .dwattr $C$DW$T$55, DW_AT_decl_file("H:/EECS_388/TI_ARM_Projects/FreeRTOS823_LM3S_Prototype/So
     947                            .dwattr $C$DW$T$55, DW_AT_decl_line(0x6f)
     948                            .dwattr $C$DW$T$55, DW_AT_decl_column(0x12)
     949                    
     950                    
     951                    $C$DW$T$93      .dwtag  DW_TAG_subroutine_type
     952                            .dwattr $C$DW$T$93, DW_AT_type(*$C$DW$T$55)
     953                            .dwattr $C$DW$T$93, DW_AT_language(DW_LANG_C)
     954                    $C$DW$65        .dwtag  DW_TAG_formal_parameter
     955                            .dwattr $C$DW$65, DW_AT_type(*$C$DW$T$3)
     956                    
     957                            .dwendtag $C$DW$T$93
     958                    
     959                    $C$DW$T$94      .dwtag  DW_TAG_pointer_type
     960                            .dwattr $C$DW$T$94, DW_AT_type(*$C$DW$T$93)
     961                            .dwattr $C$DW$T$94, DW_AT_address_class(0x20)
     962                    
     963                    $C$DW$T$95      .dwtag  DW_TAG_typedef
     964                            .dwattr $C$DW$T$95, DW_AT_name("TaskHookFunction_t")
     965                            .dwattr $C$DW$T$95, DW_AT_type(*$C$DW$T$94)
     966                            .dwattr $C$DW$T$95, DW_AT_language(DW_LANG_C)
     967                            .dwattr $C$DW$T$95, DW_AT_decl_file("H:/EECS_388/TI_ARM_Projects/FreeRTOS823_LM3S_Prototype/So
     968                            .dwattr $C$DW$T$95, DW_AT_decl_line(0x6d)
     969                            .dwattr $C$DW$T$95, DW_AT_decl_column(0x16)
     970                    
     971                    $C$DW$T$96      .dwtag  DW_TAG_typedef
     972                            .dwattr $C$DW$T$96, DW_AT_name("int_fast16_t")
     973                            .dwattr $C$DW$T$96, DW_AT_type(*$C$DW$T$54)
     974                            .dwattr $C$DW$T$96, DW_AT_language(DW_LANG_C)
     975                            .dwattr $C$DW$T$96, DW_AT_decl_file("C:/TI_CodeComposer/ccsv6/tools/compiler/ti-cgt-arm_15.12.
     976                            .dwattr $C$DW$T$96, DW_AT_decl_line(0x47)
     977                            .dwattr $C$DW$T$96, DW_AT_decl_column(0x17)
     978                    
     979                    $C$DW$T$97      .dwtag  DW_TAG_typedef
     980                            .dwattr $C$DW$T$97, DW_AT_name("int_fast32_t")
     981                            .dwattr $C$DW$T$97, DW_AT_type(*$C$DW$T$54)
     982                            .dwattr $C$DW$T$97, DW_AT_language(DW_LANG_C)
     983                            .dwattr $C$DW$T$97, DW_AT_decl_file("C:/TI_CodeComposer/ccsv6/tools/compiler/ti-cgt-arm_15.12.
     984                            .dwattr $C$DW$T$97, DW_AT_decl_line(0x4a)
     985                            .dwattr $C$DW$T$97, DW_AT_decl_column(0x17)
     986                    
     987                    $C$DW$T$98      .dwtag  DW_TAG_typedef
     988                            .dwattr $C$DW$T$98, DW_AT_name("int_fast8_t")
     989                            .dwattr $C$DW$T$98, DW_AT_type(*$C$DW$T$54)
     990                            .dwattr $C$DW$T$98, DW_AT_language(DW_LANG_C)
     991                            .dwattr $C$DW$T$98, DW_AT_decl_file("C:/TI_CodeComposer/ccsv6/tools/compiler/ti-cgt-arm_15.12.
     992                            .dwattr $C$DW$T$98, DW_AT_decl_line(0x45)
     993                            .dwattr $C$DW$T$98, DW_AT_decl_column(0x17)
     994                    
     995                    $C$DW$T$99      .dwtag  DW_TAG_typedef
     996                            .dwattr $C$DW$T$99, DW_AT_name("int_least32_t")
     997                            .dwattr $C$DW$T$99, DW_AT_type(*$C$DW$T$54)
     998                            .dwattr $C$DW$T$99, DW_AT_language(DW_LANG_C)
     999                            .dwattr $C$DW$T$99, DW_AT_decl_file("C:/TI_CodeComposer/ccsv6/tools/compiler/ti-cgt-arm_15.12.
TI ARM Assembler PC v15.12.1 Wed Feb 22 15:20:20 2017

Tools Copyright (c) 1996-2015 Texas Instruments Incorporated
Main_Blinky.asm                                                      PAGE   20

    1000                            .dwattr $C$DW$T$99, DW_AT_decl_line(0x3c)
    1001                            .dwattr $C$DW$T$99, DW_AT_decl_column(0x17)
    1002                    
    1003                    $C$DW$T$100     .dwtag  DW_TAG_typedef
    1004                            .dwattr $C$DW$T$100, DW_AT_name("portBASE_TYPE")
    1005                            .dwattr $C$DW$T$100, DW_AT_type(*$C$DW$T$54)
    1006                            .dwattr $C$DW$T$100, DW_AT_language(DW_LANG_C)
    1007                            .dwattr $C$DW$T$100, DW_AT_decl_file("H:/EECS_388/TI_ARM_Projects/FreeRTOS823_LM3S_Prototype/S
    1008                            .dwattr $C$DW$T$100, DW_AT_decl_line(0x6c)
    1009                            .dwattr $C$DW$T$100, DW_AT_decl_column(0x12)
    1010                    
    1011                    $C$DW$T$101     .dwtag  DW_TAG_typedef
    1012                            .dwattr $C$DW$T$101, DW_AT_name("portLONG")
    1013                            .dwattr $C$DW$T$101, DW_AT_type(*$C$DW$T$54)
    1014                            .dwattr $C$DW$T$101, DW_AT_language(DW_LANG_C)
    1015                            .dwattr $C$DW$T$101, DW_AT_decl_file("H:/EECS_388/TI_ARM_Projects/FreeRTOS823_LM3S_Prototype/S
    1016                            .dwattr $C$DW$T$101, DW_AT_decl_line(0x69)
    1017                            .dwattr $C$DW$T$101, DW_AT_decl_column(0x12)
    1018                    
    1019                    $C$DW$T$102     .dwtag  DW_TAG_typedef
    1020                            .dwattr $C$DW$T$102, DW_AT_name("intptr_t")
    1021                            .dwattr $C$DW$T$102, DW_AT_type(*$C$DW$T$10)
    1022                            .dwattr $C$DW$T$102, DW_AT_language(DW_LANG_C)
    1023                            .dwattr $C$DW$T$102, DW_AT_decl_file("C:/TI_CodeComposer/ccsv6/tools/compiler/ti-cgt-arm_15.12
    1024                            .dwattr $C$DW$T$102, DW_AT_decl_line(0x52)
    1025                            .dwattr $C$DW$T$102, DW_AT_decl_column(0x1a)
    1026                    
    1027                    $C$DW$T$103     .dwtag  DW_TAG_typedef
    1028                            .dwattr $C$DW$T$103, DW_AT_name("ptrdiff_t")
    1029                            .dwattr $C$DW$T$103, DW_AT_type(*$C$DW$T$10)
    1030                            .dwattr $C$DW$T$103, DW_AT_language(DW_LANG_C)
    1031                            .dwattr $C$DW$T$103, DW_AT_decl_file("C:/TI_CodeComposer/ccsv6/tools/compiler/ti-cgt-arm_15.12
    1032                            .dwattr $C$DW$T$103, DW_AT_decl_line(0x36)
    1033                            .dwattr $C$DW$T$103, DW_AT_decl_column(0x1c)
    1034                    
    1035                    $C$DW$T$11      .dwtag  DW_TAG_base_type
    1036                            .dwattr $C$DW$T$11, DW_AT_encoding(DW_ATE_unsigned)
    1037                            .dwattr $C$DW$T$11, DW_AT_name("unsigned int")
    1038                            .dwattr $C$DW$T$11, DW_AT_byte_size(0x04)
    1039                    
    1040                    $C$DW$T$23      .dwtag  DW_TAG_typedef
    1041                            .dwattr $C$DW$T$23, DW_AT_name("size_t")
    1042                            .dwattr $C$DW$T$23, DW_AT_type(*$C$DW$T$11)
    1043                            .dwattr $C$DW$T$23, DW_AT_language(DW_LANG_C)
    1044                            .dwattr $C$DW$T$23, DW_AT_decl_file("C:/TI_CodeComposer/ccsv6/tools/compiler/ti-cgt-arm_15.12.
    1045                            .dwattr $C$DW$T$23, DW_AT_decl_line(0x3a)
    1046                            .dwattr $C$DW$T$23, DW_AT_decl_column(0x19)
    1047                    
    1048                    $C$DW$T$26      .dwtag  DW_TAG_typedef
    1049                            .dwattr $C$DW$T$26, DW_AT_name("uint32_t")
    1050                            .dwattr $C$DW$T$26, DW_AT_type(*$C$DW$T$11)
    1051                            .dwattr $C$DW$T$26, DW_AT_language(DW_LANG_C)
    1052                            .dwattr $C$DW$T$26, DW_AT_decl_file("C:/TI_CodeComposer/ccsv6/tools/compiler/ti-cgt-arm_15.12.
    1053                            .dwattr $C$DW$T$26, DW_AT_decl_line(0x2f)
    1054                            .dwattr $C$DW$T$26, DW_AT_decl_column(0x1c)
TI ARM Assembler PC v15.12.1 Wed Feb 22 15:20:20 2017

Tools Copyright (c) 1996-2015 Texas Instruments Incorporated
Main_Blinky.asm                                                      PAGE   21

    1055                    
    1056                    $C$DW$T$45      .dwtag  DW_TAG_typedef
    1057                            .dwattr $C$DW$T$45, DW_AT_name("StackType_t")
    1058                            .dwattr $C$DW$T$45, DW_AT_type(*$C$DW$T$26)
    1059                            .dwattr $C$DW$T$45, DW_AT_language(DW_LANG_C)
    1060                            .dwattr $C$DW$T$45, DW_AT_decl_file("H:/EECS_388/TI_ARM_Projects/FreeRTOS823_LM3S_Prototype/So
    1061                            .dwattr $C$DW$T$45, DW_AT_decl_line(0x6e)
    1062                            .dwattr $C$DW$T$45, DW_AT_decl_column(0x12)
    1063                    
    1064                    $C$DW$T$46      .dwtag  DW_TAG_pointer_type
    1065                            .dwattr $C$DW$T$46, DW_AT_type(*$C$DW$T$45)
    1066                            .dwattr $C$DW$T$46, DW_AT_address_class(0x20)
    1067                    
    1068                    $C$DW$T$87      .dwtag  DW_TAG_const_type
    1069                            .dwattr $C$DW$T$87, DW_AT_type(*$C$DW$T$46)
    1070                    
    1071                    $C$DW$T$32      .dwtag  DW_TAG_typedef
    1072                            .dwattr $C$DW$T$32, DW_AT_name("TickType_t")
    1073                            .dwattr $C$DW$T$32, DW_AT_type(*$C$DW$T$26)
    1074                            .dwattr $C$DW$T$32, DW_AT_language(DW_LANG_C)
    1075                            .dwattr $C$DW$T$32, DW_AT_decl_file("H:/EECS_388/TI_ARM_Projects/FreeRTOS823_LM3S_Prototype/So
    1076                            .dwattr $C$DW$T$32, DW_AT_decl_line(0x76)
    1077                            .dwattr $C$DW$T$32, DW_AT_decl_column(0x13)
    1078                    
    1079                    $C$DW$T$27      .dwtag  DW_TAG_typedef
    1080                            .dwattr $C$DW$T$27, DW_AT_name("UBaseType_t")
    1081                            .dwattr $C$DW$T$27, DW_AT_type(*$C$DW$T$26)
    1082                            .dwattr $C$DW$T$27, DW_AT_language(DW_LANG_C)
    1083                            .dwattr $C$DW$T$27, DW_AT_decl_file("H:/EECS_388/TI_ARM_Projects/FreeRTOS823_LM3S_Prototype/So
    1084                            .dwattr $C$DW$T$27, DW_AT_decl_line(0x70)
    1085                            .dwattr $C$DW$T$27, DW_AT_decl_column(0x12)
    1086                    
    1087                    $C$DW$T$106     .dwtag  DW_TAG_typedef
    1088                            .dwattr $C$DW$T$106, DW_AT_name("portSTACK_TYPE")
    1089                            .dwattr $C$DW$T$106, DW_AT_type(*$C$DW$T$26)
    1090                            .dwattr $C$DW$T$106, DW_AT_language(DW_LANG_C)
    1091                            .dwattr $C$DW$T$106, DW_AT_decl_file("H:/EECS_388/TI_ARM_Projects/FreeRTOS823_LM3S_Prototype/S
    1092                            .dwattr $C$DW$T$106, DW_AT_decl_line(0x6b)
    1093                            .dwattr $C$DW$T$106, DW_AT_decl_column(0x12)
    1094                    
    1095                    $C$DW$T$107     .dwtag  DW_TAG_typedef
    1096                            .dwattr $C$DW$T$107, DW_AT_name("uint_fast16_t")
    1097                            .dwattr $C$DW$T$107, DW_AT_type(*$C$DW$T$26)
    1098                            .dwattr $C$DW$T$107, DW_AT_language(DW_LANG_C)
    1099                            .dwattr $C$DW$T$107, DW_AT_decl_file("C:/TI_CodeComposer/ccsv6/tools/compiler/ti-cgt-arm_15.12
    1100                            .dwattr $C$DW$T$107, DW_AT_decl_line(0x48)
    1101                            .dwattr $C$DW$T$107, DW_AT_decl_column(0x16)
    1102                    
    1103                    $C$DW$T$108     .dwtag  DW_TAG_typedef
    1104                            .dwattr $C$DW$T$108, DW_AT_name("uint_fast32_t")
    1105                            .dwattr $C$DW$T$108, DW_AT_type(*$C$DW$T$26)
    1106                            .dwattr $C$DW$T$108, DW_AT_language(DW_LANG_C)
    1107                            .dwattr $C$DW$T$108, DW_AT_decl_file("C:/TI_CodeComposer/ccsv6/tools/compiler/ti-cgt-arm_15.12
    1108                            .dwattr $C$DW$T$108, DW_AT_decl_line(0x4b)
    1109                            .dwattr $C$DW$T$108, DW_AT_decl_column(0x16)
TI ARM Assembler PC v15.12.1 Wed Feb 22 15:20:20 2017

Tools Copyright (c) 1996-2015 Texas Instruments Incorporated
Main_Blinky.asm                                                      PAGE   22

    1110                    
    1111                    $C$DW$T$109     .dwtag  DW_TAG_typedef
    1112                            .dwattr $C$DW$T$109, DW_AT_name("uint_fast8_t")
    1113                            .dwattr $C$DW$T$109, DW_AT_type(*$C$DW$T$26)
    1114                            .dwattr $C$DW$T$109, DW_AT_language(DW_LANG_C)
    1115                            .dwattr $C$DW$T$109, DW_AT_decl_file("C:/TI_CodeComposer/ccsv6/tools/compiler/ti-cgt-arm_15.12
    1116                            .dwattr $C$DW$T$109, DW_AT_decl_line(0x46)
    1117                            .dwattr $C$DW$T$109, DW_AT_decl_column(0x16)
    1118                    
    1119                    $C$DW$T$110     .dwtag  DW_TAG_typedef
    1120                            .dwattr $C$DW$T$110, DW_AT_name("uint_least32_t")
    1121                            .dwattr $C$DW$T$110, DW_AT_type(*$C$DW$T$26)
    1122                            .dwattr $C$DW$T$110, DW_AT_language(DW_LANG_C)
    1123                            .dwattr $C$DW$T$110, DW_AT_decl_file("C:/TI_CodeComposer/ccsv6/tools/compiler/ti-cgt-arm_15.12
    1124                            .dwattr $C$DW$T$110, DW_AT_decl_line(0x3d)
    1125                            .dwattr $C$DW$T$110, DW_AT_decl_column(0x16)
    1126                    
    1127                    $C$DW$T$111     .dwtag  DW_TAG_typedef
    1128                            .dwattr $C$DW$T$111, DW_AT_name("uintptr_t")
    1129                            .dwattr $C$DW$T$111, DW_AT_type(*$C$DW$T$11)
    1130                            .dwattr $C$DW$T$111, DW_AT_language(DW_LANG_C)
    1131                            .dwattr $C$DW$T$111, DW_AT_decl_file("C:/TI_CodeComposer/ccsv6/tools/compiler/ti-cgt-arm_15.12
    1132                            .dwattr $C$DW$T$111, DW_AT_decl_line(0x53)
    1133                            .dwattr $C$DW$T$111, DW_AT_decl_column(0x1a)
    1134                    
    1135                    $C$DW$T$12      .dwtag  DW_TAG_base_type
    1136                            .dwattr $C$DW$T$12, DW_AT_encoding(DW_ATE_signed)
    1137                            .dwattr $C$DW$T$12, DW_AT_name("long")
    1138                            .dwattr $C$DW$T$12, DW_AT_byte_size(0x04)
    1139                    
    1140                    $C$DW$T$112     .dwtag  DW_TAG_typedef
    1141                            .dwattr $C$DW$T$112, DW_AT_name("fpos_t")
    1142                            .dwattr $C$DW$T$112, DW_AT_type(*$C$DW$T$12)
    1143                            .dwattr $C$DW$T$112, DW_AT_language(DW_LANG_C)
    1144                            .dwattr $C$DW$T$112, DW_AT_decl_file("C:/TI_CodeComposer/ccsv6/tools/compiler/ti-cgt-arm_15.12
    1145                            .dwattr $C$DW$T$112, DW_AT_decl_line(0x6e)
    1146                            .dwattr $C$DW$T$112, DW_AT_decl_column(0x0e)
    1147                    
    1148                    $C$DW$T$13      .dwtag  DW_TAG_base_type
    1149                            .dwattr $C$DW$T$13, DW_AT_encoding(DW_ATE_unsigned)
    1150                            .dwattr $C$DW$T$13, DW_AT_name("unsigned long")
    1151                            .dwattr $C$DW$T$13, DW_AT_byte_size(0x04)
    1152                    
    1153                    $C$DW$T$14      .dwtag  DW_TAG_base_type
    1154                            .dwattr $C$DW$T$14, DW_AT_encoding(DW_ATE_signed)
    1155                            .dwattr $C$DW$T$14, DW_AT_name("long long")
    1156                            .dwattr $C$DW$T$14, DW_AT_byte_size(0x08)
    1157                    
    1158                    $C$DW$T$115     .dwtag  DW_TAG_typedef
    1159                            .dwattr $C$DW$T$115, DW_AT_name("int64_t")
    1160                            .dwattr $C$DW$T$115, DW_AT_type(*$C$DW$T$14)
    1161                            .dwattr $C$DW$T$115, DW_AT_language(DW_LANG_C)
    1162                            .dwattr $C$DW$T$115, DW_AT_decl_file("C:/TI_CodeComposer/ccsv6/tools/compiler/ti-cgt-arm_15.12
    1163                            .dwattr $C$DW$T$115, DW_AT_decl_line(0x32)
    1164                            .dwattr $C$DW$T$115, DW_AT_decl_column(0x21)
TI ARM Assembler PC v15.12.1 Wed Feb 22 15:20:20 2017

Tools Copyright (c) 1996-2015 Texas Instruments Incorporated
Main_Blinky.asm                                                      PAGE   23

    1165                    
    1166                    $C$DW$T$116     .dwtag  DW_TAG_typedef
    1167                            .dwattr $C$DW$T$116, DW_AT_name("int_fast64_t")
    1168                            .dwattr $C$DW$T$116, DW_AT_type(*$C$DW$T$115)
    1169                            .dwattr $C$DW$T$116, DW_AT_language(DW_LANG_C)
    1170                            .dwattr $C$DW$T$116, DW_AT_decl_file("C:/TI_CodeComposer/ccsv6/tools/compiler/ti-cgt-arm_15.12
    1171                            .dwattr $C$DW$T$116, DW_AT_decl_line(0x4e)
    1172                            .dwattr $C$DW$T$116, DW_AT_decl_column(0x17)
    1173                    
    1174                    $C$DW$T$117     .dwtag  DW_TAG_typedef
    1175                            .dwattr $C$DW$T$117, DW_AT_name("int_least64_t")
    1176                            .dwattr $C$DW$T$117, DW_AT_type(*$C$DW$T$115)
    1177                            .dwattr $C$DW$T$117, DW_AT_language(DW_LANG_C)
    1178                            .dwattr $C$DW$T$117, DW_AT_decl_file("C:/TI_CodeComposer/ccsv6/tools/compiler/ti-cgt-arm_15.12
    1179                            .dwattr $C$DW$T$117, DW_AT_decl_line(0x40)
    1180                            .dwattr $C$DW$T$117, DW_AT_decl_column(0x17)
    1181                    
    1182                    $C$DW$T$118     .dwtag  DW_TAG_typedef
    1183                            .dwattr $C$DW$T$118, DW_AT_name("portDOUBLE")
    1184                            .dwattr $C$DW$T$118, DW_AT_type(*$C$DW$T$115)
    1185                            .dwattr $C$DW$T$118, DW_AT_language(DW_LANG_C)
    1186                            .dwattr $C$DW$T$118, DW_AT_decl_file("H:/EECS_388/TI_ARM_Projects/FreeRTOS823_LM3S_Prototype/S
    1187                            .dwattr $C$DW$T$118, DW_AT_decl_line(0x68)
    1188                            .dwattr $C$DW$T$118, DW_AT_decl_column(0x12)
    1189                    
    1190                    $C$DW$T$119     .dwtag  DW_TAG_typedef
    1191                            .dwattr $C$DW$T$119, DW_AT_name("intmax_t")
    1192                            .dwattr $C$DW$T$119, DW_AT_type(*$C$DW$T$14)
    1193                            .dwattr $C$DW$T$119, DW_AT_language(DW_LANG_C)
    1194                            .dwattr $C$DW$T$119, DW_AT_decl_file("C:/TI_CodeComposer/ccsv6/tools/compiler/ti-cgt-arm_15.12
    1195                            .dwattr $C$DW$T$119, DW_AT_decl_line(0x56)
    1196                            .dwattr $C$DW$T$119, DW_AT_decl_column(0x20)
    1197                    
    1198                    $C$DW$T$15      .dwtag  DW_TAG_base_type
    1199                            .dwattr $C$DW$T$15, DW_AT_encoding(DW_ATE_unsigned)
    1200                            .dwattr $C$DW$T$15, DW_AT_name("unsigned long long")
    1201                            .dwattr $C$DW$T$15, DW_AT_byte_size(0x08)
    1202                    
    1203                    $C$DW$T$120     .dwtag  DW_TAG_typedef
    1204                            .dwattr $C$DW$T$120, DW_AT_name("uint64_t")
    1205                            .dwattr $C$DW$T$120, DW_AT_type(*$C$DW$T$15)
    1206                            .dwattr $C$DW$T$120, DW_AT_language(DW_LANG_C)
    1207                            .dwattr $C$DW$T$120, DW_AT_decl_file("C:/TI_CodeComposer/ccsv6/tools/compiler/ti-cgt-arm_15.12
    1208                            .dwattr $C$DW$T$120, DW_AT_decl_line(0x33)
    1209                            .dwattr $C$DW$T$120, DW_AT_decl_column(0x20)
    1210                    
    1211                    $C$DW$T$121     .dwtag  DW_TAG_typedef
    1212                            .dwattr $C$DW$T$121, DW_AT_name("uint_fast64_t")
    1213                            .dwattr $C$DW$T$121, DW_AT_type(*$C$DW$T$120)
    1214                            .dwattr $C$DW$T$121, DW_AT_language(DW_LANG_C)
    1215                            .dwattr $C$DW$T$121, DW_AT_decl_file("C:/TI_CodeComposer/ccsv6/tools/compiler/ti-cgt-arm_15.12
    1216                            .dwattr $C$DW$T$121, DW_AT_decl_line(0x4f)
    1217                            .dwattr $C$DW$T$121, DW_AT_decl_column(0x16)
    1218                    
    1219                    $C$DW$T$122     .dwtag  DW_TAG_typedef
TI ARM Assembler PC v15.12.1 Wed Feb 22 15:20:20 2017

Tools Copyright (c) 1996-2015 Texas Instruments Incorporated
Main_Blinky.asm                                                      PAGE   24

    1220                            .dwattr $C$DW$T$122, DW_AT_name("uint_least64_t")
    1221                            .dwattr $C$DW$T$122, DW_AT_type(*$C$DW$T$120)
    1222                            .dwattr $C$DW$T$122, DW_AT_language(DW_LANG_C)
    1223                            .dwattr $C$DW$T$122, DW_AT_decl_file("C:/TI_CodeComposer/ccsv6/tools/compiler/ti-cgt-arm_15.12
    1224                            .dwattr $C$DW$T$122, DW_AT_decl_line(0x41)
    1225                            .dwattr $C$DW$T$122, DW_AT_decl_column(0x16)
    1226                    
    1227                    $C$DW$T$123     .dwtag  DW_TAG_typedef
    1228                            .dwattr $C$DW$T$123, DW_AT_name("uintmax_t")
    1229                            .dwattr $C$DW$T$123, DW_AT_type(*$C$DW$T$15)
    1230                            .dwattr $C$DW$T$123, DW_AT_language(DW_LANG_C)
    1231                            .dwattr $C$DW$T$123, DW_AT_decl_file("C:/TI_CodeComposer/ccsv6/tools/compiler/ti-cgt-arm_15.12
    1232                            .dwattr $C$DW$T$123, DW_AT_decl_line(0x57)
    1233                            .dwattr $C$DW$T$123, DW_AT_decl_column(0x20)
    1234                    
    1235                    $C$DW$T$16      .dwtag  DW_TAG_base_type
    1236                            .dwattr $C$DW$T$16, DW_AT_encoding(DW_ATE_float)
    1237                            .dwattr $C$DW$T$16, DW_AT_name("float")
    1238                            .dwattr $C$DW$T$16, DW_AT_byte_size(0x04)
    1239                    
    1240                    $C$DW$T$124     .dwtag  DW_TAG_typedef
    1241                            .dwattr $C$DW$T$124, DW_AT_name("portFLOAT")
    1242                            .dwattr $C$DW$T$124, DW_AT_type(*$C$DW$T$16)
    1243                            .dwattr $C$DW$T$124, DW_AT_language(DW_LANG_C)
    1244                            .dwattr $C$DW$T$124, DW_AT_decl_file("H:/EECS_388/TI_ARM_Projects/FreeRTOS823_LM3S_Prototype/S
    1245                            .dwattr $C$DW$T$124, DW_AT_decl_line(0x67)
    1246                            .dwattr $C$DW$T$124, DW_AT_decl_column(0x10)
    1247                    
    1248                    $C$DW$T$17      .dwtag  DW_TAG_base_type
    1249                            .dwattr $C$DW$T$17, DW_AT_encoding(DW_ATE_float)
    1250                            .dwattr $C$DW$T$17, DW_AT_name("double")
    1251                            .dwattr $C$DW$T$17, DW_AT_byte_size(0x08)
    1252                    
    1253                    $C$DW$T$18      .dwtag  DW_TAG_base_type
    1254                            .dwattr $C$DW$T$18, DW_AT_encoding(DW_ATE_float)
    1255                            .dwattr $C$DW$T$18, DW_AT_name("long double")
    1256                            .dwattr $C$DW$T$18, DW_AT_byte_size(0x08)
    1257                    
    1258                    $C$DW$T$41      .dwtag  DW_TAG_const_type
    1259                            .dwattr $C$DW$T$41, DW_AT_type(*$C$DW$T$6)
    1260                    
    1261                    $C$DW$T$42      .dwtag  DW_TAG_pointer_type
    1262                            .dwattr $C$DW$T$42, DW_AT_type(*$C$DW$T$41)
    1263                            .dwattr $C$DW$T$42, DW_AT_address_class(0x20)
    1264                    
    1265                    $C$DW$T$43      .dwtag  DW_TAG_const_type
    1266                            .dwattr $C$DW$T$43, DW_AT_type(*$C$DW$T$42)
    1267                    
    1268                    $C$DW$T$130     .dwtag  DW_TAG_base_type
    1269                            .dwattr $C$DW$T$130, DW_AT_encoding(DW_ATE_unsigned_char)
    1270                            .dwattr $C$DW$T$130, DW_AT_name("unsigned char")
    1271                            .dwattr $C$DW$T$130, DW_AT_byte_size(0x01)
    1272                    
    1273                    
    1274                    $C$DW$T$25      .dwtag  DW_TAG_structure_type
TI ARM Assembler PC v15.12.1 Wed Feb 22 15:20:20 2017

Tools Copyright (c) 1996-2015 Texas Instruments Incorporated
Main_Blinky.asm                                                      PAGE   25

    1275                            .dwattr $C$DW$T$25, DW_AT_name("__va_list")
    1276                            .dwattr $C$DW$T$25, DW_AT_byte_size(0x04)
    1277                    $C$DW$66        .dwtag  DW_TAG_member
    1278                            .dwattr $C$DW$66, DW_AT_type(*$C$DW$T$3)
    1279                            .dwattr $C$DW$66, DW_AT_name("__ap")
    1280                            .dwattr $C$DW$66, DW_AT_TI_symbol_name("__ap")
    1281                            .dwattr $C$DW$66, DW_AT_data_member_location[DW_OP_plus_uconst 0x0]
    1282                            .dwattr $C$DW$66, DW_AT_accessibility(DW_ACCESS_public)
    1283                            .dwattr $C$DW$66, DW_AT_decl_file("C:/TI_CodeComposer/ccsv6/tools/compiler/ti-cgt-arm_15.12.1.
    1284                            .dwattr $C$DW$66, DW_AT_decl_line(0x38)
    1285                            .dwattr $C$DW$66, DW_AT_decl_column(0x0c)
    1286                    
    1287                            .dwattr $C$DW$T$25, DW_AT_decl_file("C:/TI_CodeComposer/ccsv6/tools/compiler/ti-cgt-arm_15.12.
    1288                            .dwattr $C$DW$T$25, DW_AT_decl_line(0x37)
    1289                            .dwattr $C$DW$T$25, DW_AT_decl_column(0x10)
    1290                            .dwendtag $C$DW$T$25
    1291                    
    1292                    $C$DW$T$131     .dwtag  DW_TAG_typedef
    1293                            .dwattr $C$DW$T$131, DW_AT_name("va_list")
    1294                            .dwattr $C$DW$T$131, DW_AT_type(*$C$DW$T$25)
    1295                            .dwattr $C$DW$T$131, DW_AT_language(DW_LANG_C)
    1296                            .dwattr $C$DW$T$131, DW_AT_decl_file("C:/TI_CodeComposer/ccsv6/tools/compiler/ti-cgt-arm_15.12
    1297                            .dwattr $C$DW$T$131, DW_AT_decl_line(0x39)
    1298                            .dwattr $C$DW$T$131, DW_AT_decl_column(0x03)
    1299                    
    1300                    
    1301                    $C$DW$T$31      .dwtag  DW_TAG_structure_type
    1302                            .dwattr $C$DW$T$31, DW_AT_name("xLIST")
    1303                            .dwattr $C$DW$T$31, DW_AT_byte_size(0x14)
    1304                    $C$DW$67        .dwtag  DW_TAG_member
    1305                            .dwattr $C$DW$67, DW_AT_type(*$C$DW$T$27)
    1306                            .dwattr $C$DW$67, DW_AT_name("uxNumberOfItems")
    1307                            .dwattr $C$DW$67, DW_AT_TI_symbol_name("uxNumberOfItems")
    1308                            .dwattr $C$DW$67, DW_AT_data_member_location[DW_OP_plus_uconst 0x0]
    1309                            .dwattr $C$DW$67, DW_AT_accessibility(DW_ACCESS_public)
    1310                            .dwattr $C$DW$67, DW_AT_decl_file("H:\EECS_388\TI_ARM_Projects\FreeRTOS823_LM3S_Prototype\Sour
    1311                            .dwattr $C$DW$67, DW_AT_decl_line(0xd0)
    1312                            .dwattr $C$DW$67, DW_AT_decl_column(0x22)
    1313                    
    1314                    $C$DW$68        .dwtag  DW_TAG_member
    1315                            .dwattr $C$DW$68, DW_AT_type(*$C$DW$T$29)
    1316                            .dwattr $C$DW$68, DW_AT_name("pxIndex")
    1317                            .dwattr $C$DW$68, DW_AT_TI_symbol_name("pxIndex")
    1318                            .dwattr $C$DW$68, DW_AT_data_member_location[DW_OP_plus_uconst 0x4]
    1319                            .dwattr $C$DW$68, DW_AT_accessibility(DW_ACCESS_public)
    1320                            .dwattr $C$DW$68, DW_AT_decl_file("H:\EECS_388\TI_ARM_Projects\FreeRTOS823_LM3S_Prototype\Sour
    1321                            .dwattr $C$DW$68, DW_AT_decl_line(0xd1)
    1322                            .dwattr $C$DW$68, DW_AT_decl_column(0x23)
    1323                    
    1324                    $C$DW$69        .dwtag  DW_TAG_member
    1325                            .dwattr $C$DW$69, DW_AT_type(*$C$DW$T$30)
    1326                            .dwattr $C$DW$69, DW_AT_name("xListEnd")
    1327                            .dwattr $C$DW$69, DW_AT_TI_symbol_name("xListEnd")
    1328                            .dwattr $C$DW$69, DW_AT_data_member_location[DW_OP_plus_uconst 0x8]
    1329                            .dwattr $C$DW$69, DW_AT_accessibility(DW_ACCESS_public)
TI ARM Assembler PC v15.12.1 Wed Feb 22 15:20:20 2017

Tools Copyright (c) 1996-2015 Texas Instruments Incorporated
Main_Blinky.asm                                                      PAGE   26

    1330                            .dwattr $C$DW$69, DW_AT_decl_file("H:\EECS_388\TI_ARM_Projects\FreeRTOS823_LM3S_Prototype\Sour
    1331                            .dwattr $C$DW$69, DW_AT_decl_line(0xd2)
    1332                            .dwattr $C$DW$69, DW_AT_decl_column(0x11)
    1333                    
    1334                            .dwattr $C$DW$T$31, DW_AT_decl_file("H:\EECS_388\TI_ARM_Projects\FreeRTOS823_LM3S_Prototype\So
    1335                            .dwattr $C$DW$T$31, DW_AT_decl_line(0xcd)
    1336                            .dwattr $C$DW$T$31, DW_AT_decl_column(0x10)
    1337                            .dwendtag $C$DW$T$31
    1338                    
    1339                    $C$DW$T$132     .dwtag  DW_TAG_typedef
    1340                            .dwattr $C$DW$T$132, DW_AT_name("List_t")
    1341                            .dwattr $C$DW$T$132, DW_AT_type(*$C$DW$T$31)
    1342                            .dwattr $C$DW$T$132, DW_AT_language(DW_LANG_C)
    1343                            .dwattr $C$DW$T$132, DW_AT_decl_file("H:\EECS_388\TI_ARM_Projects\FreeRTOS823_LM3S_Prototype\S
    1344                            .dwattr $C$DW$T$132, DW_AT_decl_line(0xd4)
    1345                            .dwattr $C$DW$T$132, DW_AT_decl_column(0x03)
    1346                    
    1347                    
    1348                    $C$DW$T$34      .dwtag  DW_TAG_structure_type
    1349                            .dwattr $C$DW$T$34, DW_AT_name("xLIST_ITEM")
    1350                            .dwattr $C$DW$T$34, DW_AT_byte_size(0x14)
    1351                    $C$DW$70        .dwtag  DW_TAG_member
    1352                            .dwattr $C$DW$70, DW_AT_type(*$C$DW$T$32)
    1353                            .dwattr $C$DW$70, DW_AT_name("xItemValue")
    1354                            .dwattr $C$DW$70, DW_AT_TI_symbol_name("xItemValue")
    1355                            .dwattr $C$DW$70, DW_AT_data_member_location[DW_OP_plus_uconst 0x0]
    1356                            .dwattr $C$DW$70, DW_AT_accessibility(DW_ACCESS_public)
    1357                            .dwattr $C$DW$70, DW_AT_decl_file("H:\EECS_388\TI_ARM_Projects\FreeRTOS823_LM3S_Prototype\Sour
    1358                            .dwattr $C$DW$70, DW_AT_decl_line(0xb8)
    1359                            .dwattr $C$DW$70, DW_AT_decl_column(0x21)
    1360                    
    1361                    $C$DW$71        .dwtag  DW_TAG_member
    1362                            .dwattr $C$DW$71, DW_AT_type(*$C$DW$T$33)
    1363                            .dwattr $C$DW$71, DW_AT_name("pxNext")
    1364                            .dwattr $C$DW$71, DW_AT_TI_symbol_name("pxNext")
    1365                            .dwattr $C$DW$71, DW_AT_data_member_location[DW_OP_plus_uconst 0x4]
    1366                            .dwattr $C$DW$71, DW_AT_accessibility(DW_ACCESS_public)
    1367                            .dwattr $C$DW$71, DW_AT_decl_file("H:\EECS_388\TI_ARM_Projects\FreeRTOS823_LM3S_Prototype\Sour
    1368                            .dwattr $C$DW$71, DW_AT_decl_line(0xb9)
    1369                            .dwattr $C$DW$71, DW_AT_decl_column(0x2a)
    1370                    
    1371                    $C$DW$72        .dwtag  DW_TAG_member
    1372                            .dwattr $C$DW$72, DW_AT_type(*$C$DW$T$33)
    1373                            .dwattr $C$DW$72, DW_AT_name("pxPrevious")
    1374                            .dwattr $C$DW$72, DW_AT_TI_symbol_name("pxPrevious")
    1375                            .dwattr $C$DW$72, DW_AT_data_member_location[DW_OP_plus_uconst 0x8]
    1376                            .dwattr $C$DW$72, DW_AT_accessibility(DW_ACCESS_public)
    1377                            .dwattr $C$DW$72, DW_AT_decl_file("H:\EECS_388\TI_ARM_Projects\FreeRTOS823_LM3S_Prototype\Sour
    1378                            .dwattr $C$DW$72, DW_AT_decl_line(0xba)
    1379                            .dwattr $C$DW$72, DW_AT_decl_column(0x2a)
    1380                    
    1381                    $C$DW$73        .dwtag  DW_TAG_member
    1382                            .dwattr $C$DW$73, DW_AT_type(*$C$DW$T$3)
    1383                            .dwattr $C$DW$73, DW_AT_name("pvOwner")
    1384                            .dwattr $C$DW$73, DW_AT_TI_symbol_name("pvOwner")
TI ARM Assembler PC v15.12.1 Wed Feb 22 15:20:20 2017

Tools Copyright (c) 1996-2015 Texas Instruments Incorporated
Main_Blinky.asm                                                      PAGE   27

    1385                            .dwattr $C$DW$73, DW_AT_data_member_location[DW_OP_plus_uconst 0xc]
    1386                            .dwattr $C$DW$73, DW_AT_accessibility(DW_ACCESS_public)
    1387                            .dwattr $C$DW$73, DW_AT_decl_file("H:\EECS_388\TI_ARM_Projects\FreeRTOS823_LM3S_Prototype\Sour
    1388                            .dwattr $C$DW$73, DW_AT_decl_line(0xbb)
    1389                            .dwattr $C$DW$73, DW_AT_decl_column(0x09)
    1390                    
    1391                    $C$DW$74        .dwtag  DW_TAG_member
    1392                            .dwattr $C$DW$74, DW_AT_type(*$C$DW$T$3)
    1393                            .dwattr $C$DW$74, DW_AT_name("pvContainer")
    1394                            .dwattr $C$DW$74, DW_AT_TI_symbol_name("pvContainer")
    1395                            .dwattr $C$DW$74, DW_AT_data_member_location[DW_OP_plus_uconst 0x10]
    1396                            .dwattr $C$DW$74, DW_AT_accessibility(DW_ACCESS_public)
    1397                            .dwattr $C$DW$74, DW_AT_decl_file("H:\EECS_388\TI_ARM_Projects\FreeRTOS823_LM3S_Prototype\Sour
    1398                            .dwattr $C$DW$74, DW_AT_decl_line(0xbc)
    1399                            .dwattr $C$DW$74, DW_AT_decl_column(0x1d)
    1400                    
    1401                            .dwattr $C$DW$T$34, DW_AT_decl_file("H:\EECS_388\TI_ARM_Projects\FreeRTOS823_LM3S_Prototype\So
    1402                            .dwattr $C$DW$T$34, DW_AT_decl_line(0xb5)
    1403                            .dwattr $C$DW$T$34, DW_AT_decl_column(0x08)
    1404                            .dwendtag $C$DW$T$34
    1405                    
    1406                    $C$DW$T$28      .dwtag  DW_TAG_typedef
    1407                            .dwattr $C$DW$T$28, DW_AT_name("ListItem_t")
    1408                            .dwattr $C$DW$T$28, DW_AT_type(*$C$DW$T$34)
    1409                            .dwattr $C$DW$T$28, DW_AT_language(DW_LANG_C)
    1410                            .dwattr $C$DW$T$28, DW_AT_decl_file("H:\EECS_388\TI_ARM_Projects\FreeRTOS823_LM3S_Prototype\So
    1411                            .dwattr $C$DW$T$28, DW_AT_decl_line(0xbf)
    1412                            .dwattr $C$DW$T$28, DW_AT_decl_column(0x1b)
    1413                    
    1414                    $C$DW$T$29      .dwtag  DW_TAG_pointer_type
    1415                            .dwattr $C$DW$T$29, DW_AT_type(*$C$DW$T$28)
    1416                            .dwattr $C$DW$T$29, DW_AT_address_class(0x20)
    1417                    
    1418                    $C$DW$T$33      .dwtag  DW_TAG_pointer_type
    1419                            .dwattr $C$DW$T$33, DW_AT_type(*$C$DW$T$34)
    1420                            .dwattr $C$DW$T$33, DW_AT_address_class(0x20)
    1421                    
    1422                    
    1423                    $C$DW$T$35      .dwtag  DW_TAG_structure_type
    1424                            .dwattr $C$DW$T$35, DW_AT_name("xMEMORY_REGION")
    1425                            .dwattr $C$DW$T$35, DW_AT_byte_size(0x0c)
    1426                    $C$DW$75        .dwtag  DW_TAG_member
    1427                            .dwattr $C$DW$75, DW_AT_type(*$C$DW$T$3)
    1428                            .dwattr $C$DW$75, DW_AT_name("pvBaseAddress")
    1429                            .dwattr $C$DW$75, DW_AT_TI_symbol_name("pvBaseAddress")
    1430                            .dwattr $C$DW$75, DW_AT_data_member_location[DW_OP_plus_uconst 0x0]
    1431                            .dwattr $C$DW$75, DW_AT_accessibility(DW_ACCESS_public)
    1432                            .dwattr $C$DW$75, DW_AT_decl_file("H:/EECS_388/TI_ARM_Projects/FreeRTOS823_LM3S_Prototype/Sour
    1433                            .dwattr $C$DW$75, DW_AT_decl_line(0x91)
    1434                            .dwattr $C$DW$75, DW_AT_decl_column(0x08)
    1435                    
    1436                    $C$DW$76        .dwtag  DW_TAG_member
    1437                            .dwattr $C$DW$76, DW_AT_type(*$C$DW$T$26)
    1438                            .dwattr $C$DW$76, DW_AT_name("ulLengthInBytes")
    1439                            .dwattr $C$DW$76, DW_AT_TI_symbol_name("ulLengthInBytes")
TI ARM Assembler PC v15.12.1 Wed Feb 22 15:20:20 2017

Tools Copyright (c) 1996-2015 Texas Instruments Incorporated
Main_Blinky.asm                                                      PAGE   28

    1440                            .dwattr $C$DW$76, DW_AT_data_member_location[DW_OP_plus_uconst 0x4]
    1441                            .dwattr $C$DW$76, DW_AT_accessibility(DW_ACCESS_public)
    1442                            .dwattr $C$DW$76, DW_AT_decl_file("H:/EECS_388/TI_ARM_Projects/FreeRTOS823_LM3S_Prototype/Sour
    1443                            .dwattr $C$DW$76, DW_AT_decl_line(0x92)
    1444                            .dwattr $C$DW$76, DW_AT_decl_column(0x0b)
    1445                    
    1446                    $C$DW$77        .dwtag  DW_TAG_member
    1447                            .dwattr $C$DW$77, DW_AT_type(*$C$DW$T$26)
    1448                            .dwattr $C$DW$77, DW_AT_name("ulParameters")
    1449                            .dwattr $C$DW$77, DW_AT_TI_symbol_name("ulParameters")
    1450                            .dwattr $C$DW$77, DW_AT_data_member_location[DW_OP_plus_uconst 0x8]
    1451                            .dwattr $C$DW$77, DW_AT_accessibility(DW_ACCESS_public)
    1452                            .dwattr $C$DW$77, DW_AT_decl_file("H:/EECS_388/TI_ARM_Projects/FreeRTOS823_LM3S_Prototype/Sour
    1453                            .dwattr $C$DW$77, DW_AT_decl_line(0x93)
    1454                            .dwattr $C$DW$77, DW_AT_decl_column(0x0b)
    1455                    
    1456                            .dwattr $C$DW$T$35, DW_AT_decl_file("H:/EECS_388/TI_ARM_Projects/FreeRTOS823_LM3S_Prototype/So
    1457                            .dwattr $C$DW$T$35, DW_AT_decl_line(0x8f)
    1458                            .dwattr $C$DW$T$35, DW_AT_decl_column(0x10)
    1459                            .dwendtag $C$DW$T$35
    1460                    
    1461                    $C$DW$T$47      .dwtag  DW_TAG_typedef
    1462                            .dwattr $C$DW$T$47, DW_AT_name("MemoryRegion_t")
    1463                            .dwattr $C$DW$T$47, DW_AT_type(*$C$DW$T$35)
    1464                            .dwattr $C$DW$T$47, DW_AT_language(DW_LANG_C)
    1465                            .dwattr $C$DW$T$47, DW_AT_decl_file("H:/EECS_388/TI_ARM_Projects/FreeRTOS823_LM3S_Prototype/So
    1466                            .dwattr $C$DW$T$47, DW_AT_decl_line(0x94)
    1467                            .dwattr $C$DW$T$47, DW_AT_decl_column(0x03)
    1468                    
    1469                    $C$DW$T$88      .dwtag  DW_TAG_const_type
    1470                            .dwattr $C$DW$T$88, DW_AT_type(*$C$DW$T$47)
    1471                    
    1472                    $C$DW$T$89      .dwtag  DW_TAG_pointer_type
    1473                            .dwattr $C$DW$T$89, DW_AT_type(*$C$DW$T$88)
    1474                            .dwattr $C$DW$T$89, DW_AT_address_class(0x20)
    1475                    
    1476                    $C$DW$T$90      .dwtag  DW_TAG_const_type
    1477                            .dwattr $C$DW$T$90, DW_AT_type(*$C$DW$T$89)
    1478                    
    1479                    
    1480                    $C$DW$T$48      .dwtag  DW_TAG_array_type
    1481                            .dwattr $C$DW$T$48, DW_AT_type(*$C$DW$T$47)
    1482                            .dwattr $C$DW$T$48, DW_AT_language(DW_LANG_C)
    1483                            .dwattr $C$DW$T$48, DW_AT_byte_size(0x0c)
    1484                    $C$DW$78        .dwtag  DW_TAG_subrange_type
    1485                            .dwattr $C$DW$78, DW_AT_upper_bound(0x00)
    1486                    
    1487                            .dwendtag $C$DW$T$48
    1488                    
    1489                    
    1490                    $C$DW$T$36      .dwtag  DW_TAG_structure_type
    1491                            .dwattr $C$DW$T$36, DW_AT_name("xMINI_LIST_ITEM")
    1492                            .dwattr $C$DW$T$36, DW_AT_byte_size(0x0c)
    1493                    $C$DW$79        .dwtag  DW_TAG_member
    1494                            .dwattr $C$DW$79, DW_AT_type(*$C$DW$T$32)
TI ARM Assembler PC v15.12.1 Wed Feb 22 15:20:20 2017

Tools Copyright (c) 1996-2015 Texas Instruments Incorporated
Main_Blinky.asm                                                      PAGE   29

    1495                            .dwattr $C$DW$79, DW_AT_name("xItemValue")
    1496                            .dwattr $C$DW$79, DW_AT_TI_symbol_name("xItemValue")
    1497                            .dwattr $C$DW$79, DW_AT_data_member_location[DW_OP_plus_uconst 0x0]
    1498                            .dwattr $C$DW$79, DW_AT_accessibility(DW_ACCESS_public)
    1499                            .dwattr $C$DW$79, DW_AT_decl_file("H:\EECS_388\TI_ARM_Projects\FreeRTOS823_LM3S_Prototype\Sour
    1500                            .dwattr $C$DW$79, DW_AT_decl_line(0xc4)
    1501                            .dwattr $C$DW$79, DW_AT_decl_column(0x21)
    1502                    
    1503                    $C$DW$80        .dwtag  DW_TAG_member
    1504                            .dwattr $C$DW$80, DW_AT_type(*$C$DW$T$33)
    1505                            .dwattr $C$DW$80, DW_AT_name("pxNext")
    1506                            .dwattr $C$DW$80, DW_AT_TI_symbol_name("pxNext")
    1507                            .dwattr $C$DW$80, DW_AT_data_member_location[DW_OP_plus_uconst 0x4]
    1508                            .dwattr $C$DW$80, DW_AT_accessibility(DW_ACCESS_public)
    1509                            .dwattr $C$DW$80, DW_AT_decl_file("H:\EECS_388\TI_ARM_Projects\FreeRTOS823_LM3S_Prototype\Sour
    1510                            .dwattr $C$DW$80, DW_AT_decl_line(0xc5)
    1511                            .dwattr $C$DW$80, DW_AT_decl_column(0x2a)
    1512                    
    1513                    $C$DW$81        .dwtag  DW_TAG_member
    1514                            .dwattr $C$DW$81, DW_AT_type(*$C$DW$T$33)
    1515                            .dwattr $C$DW$81, DW_AT_name("pxPrevious")
    1516                            .dwattr $C$DW$81, DW_AT_TI_symbol_name("pxPrevious")
    1517                            .dwattr $C$DW$81, DW_AT_data_member_location[DW_OP_plus_uconst 0x8]
    1518                            .dwattr $C$DW$81, DW_AT_accessibility(DW_ACCESS_public)
    1519                            .dwattr $C$DW$81, DW_AT_decl_file("H:\EECS_388\TI_ARM_Projects\FreeRTOS823_LM3S_Prototype\Sour
    1520                            .dwattr $C$DW$81, DW_AT_decl_line(0xc6)
    1521                            .dwattr $C$DW$81, DW_AT_decl_column(0x2a)
    1522                    
    1523                            .dwattr $C$DW$T$36, DW_AT_decl_file("H:\EECS_388\TI_ARM_Projects\FreeRTOS823_LM3S_Prototype\So
    1524                            .dwattr $C$DW$T$36, DW_AT_decl_line(0xc1)
    1525                            .dwattr $C$DW$T$36, DW_AT_decl_column(0x08)
    1526                            .dwendtag $C$DW$T$36
    1527                    
    1528                    $C$DW$T$30      .dwtag  DW_TAG_typedef
    1529                            .dwattr $C$DW$T$30, DW_AT_name("MiniListItem_t")
    1530                            .dwattr $C$DW$T$30, DW_AT_type(*$C$DW$T$36)
    1531                            .dwattr $C$DW$T$30, DW_AT_language(DW_LANG_C)
    1532                            .dwattr $C$DW$T$30, DW_AT_decl_file("H:\EECS_388\TI_ARM_Projects\FreeRTOS823_LM3S_Prototype\So
    1533                            .dwattr $C$DW$T$30, DW_AT_decl_line(0xc8)
    1534                            .dwattr $C$DW$T$30, DW_AT_decl_column(0x20)
    1535                    
    1536                    
    1537                    $C$DW$T$49      .dwtag  DW_TAG_structure_type
    1538                            .dwattr $C$DW$T$49, DW_AT_name("xTASK_PARAMETERS")
    1539                            .dwattr $C$DW$T$49, DW_AT_byte_size(0x24)
    1540                    $C$DW$82        .dwtag  DW_TAG_member
    1541                            .dwattr $C$DW$82, DW_AT_type(*$C$DW$T$39)
    1542                            .dwattr $C$DW$82, DW_AT_name("pvTaskCode")
    1543                            .dwattr $C$DW$82, DW_AT_TI_symbol_name("pvTaskCode")
    1544                            .dwattr $C$DW$82, DW_AT_data_member_location[DW_OP_plus_uconst 0x0]
    1545                            .dwattr $C$DW$82, DW_AT_accessibility(DW_ACCESS_public)
    1546                            .dwattr $C$DW$82, DW_AT_decl_file("H:/EECS_388/TI_ARM_Projects/FreeRTOS823_LM3S_Prototype/Sour
    1547                            .dwattr $C$DW$82, DW_AT_decl_line(0x9b)
    1548                            .dwattr $C$DW$82, DW_AT_decl_column(0x11)
    1549                    
TI ARM Assembler PC v15.12.1 Wed Feb 22 15:20:20 2017

Tools Copyright (c) 1996-2015 Texas Instruments Incorporated
Main_Blinky.asm                                                      PAGE   30

    1550                    $C$DW$83        .dwtag  DW_TAG_member
    1551                            .dwattr $C$DW$83, DW_AT_type(*$C$DW$T$43)
    1552                            .dwattr $C$DW$83, DW_AT_name("pcName")
    1553                            .dwattr $C$DW$83, DW_AT_TI_symbol_name("pcName")
    1554                            .dwattr $C$DW$83, DW_AT_data_member_location[DW_OP_plus_uconst 0x4]
    1555                            .dwattr $C$DW$83, DW_AT_accessibility(DW_ACCESS_public)
    1556                            .dwattr $C$DW$83, DW_AT_decl_file("H:/EECS_388/TI_ARM_Projects/FreeRTOS823_LM3S_Prototype/Sour
    1557                            .dwattr $C$DW$83, DW_AT_decl_line(0x9c)
    1558                            .dwattr $C$DW$83, DW_AT_decl_column(0x15)
    1559                    
    1560                    $C$DW$84        .dwtag  DW_TAG_member
    1561                            .dwattr $C$DW$84, DW_AT_type(*$C$DW$T$44)
    1562                            .dwattr $C$DW$84, DW_AT_name("usStackDepth")
    1563                            .dwattr $C$DW$84, DW_AT_TI_symbol_name("usStackDepth")
    1564                            .dwattr $C$DW$84, DW_AT_data_member_location[DW_OP_plus_uconst 0x8]
    1565                            .dwattr $C$DW$84, DW_AT_accessibility(DW_ACCESS_public)
    1566                            .dwattr $C$DW$84, DW_AT_decl_file("H:/EECS_388/TI_ARM_Projects/FreeRTOS823_LM3S_Prototype/Sour
    1567                            .dwattr $C$DW$84, DW_AT_decl_line(0x9d)
    1568                            .dwattr $C$DW$84, DW_AT_decl_column(0x0b)
    1569                    
    1570                    $C$DW$85        .dwtag  DW_TAG_member
    1571                            .dwattr $C$DW$85, DW_AT_type(*$C$DW$T$3)
    1572                            .dwattr $C$DW$85, DW_AT_name("pvParameters")
    1573                            .dwattr $C$DW$85, DW_AT_TI_symbol_name("pvParameters")
    1574                            .dwattr $C$DW$85, DW_AT_data_member_location[DW_OP_plus_uconst 0xc]
    1575                            .dwattr $C$DW$85, DW_AT_accessibility(DW_ACCESS_public)
    1576                            .dwattr $C$DW$85, DW_AT_decl_file("H:/EECS_388/TI_ARM_Projects/FreeRTOS823_LM3S_Prototype/Sour
    1577                            .dwattr $C$DW$85, DW_AT_decl_line(0x9e)
    1578                            .dwattr $C$DW$85, DW_AT_decl_column(0x08)
    1579                    
    1580                    $C$DW$86        .dwtag  DW_TAG_member
    1581                            .dwattr $C$DW$86, DW_AT_type(*$C$DW$T$27)
    1582                            .dwattr $C$DW$86, DW_AT_name("uxPriority")
    1583                            .dwattr $C$DW$86, DW_AT_TI_symbol_name("uxPriority")
    1584                            .dwattr $C$DW$86, DW_AT_data_member_location[DW_OP_plus_uconst 0x10]
    1585                            .dwattr $C$DW$86, DW_AT_accessibility(DW_ACCESS_public)
    1586                            .dwattr $C$DW$86, DW_AT_decl_file("H:/EECS_388/TI_ARM_Projects/FreeRTOS823_LM3S_Prototype/Sour
    1587                            .dwattr $C$DW$86, DW_AT_decl_line(0x9f)
    1588                            .dwattr $C$DW$86, DW_AT_decl_column(0x0e)
    1589                    
    1590                    $C$DW$87        .dwtag  DW_TAG_member
    1591                            .dwattr $C$DW$87, DW_AT_type(*$C$DW$T$46)
    1592                            .dwattr $C$DW$87, DW_AT_name("puxStackBuffer")
    1593                            .dwattr $C$DW$87, DW_AT_TI_symbol_name("puxStackBuffer")
    1594                            .dwattr $C$DW$87, DW_AT_data_member_location[DW_OP_plus_uconst 0x14]
    1595                            .dwattr $C$DW$87, DW_AT_accessibility(DW_ACCESS_public)
    1596                            .dwattr $C$DW$87, DW_AT_decl_file("H:/EECS_388/TI_ARM_Projects/FreeRTOS823_LM3S_Prototype/Sour
    1597                            .dwattr $C$DW$87, DW_AT_decl_line(0xa0)
    1598                            .dwattr $C$DW$87, DW_AT_decl_column(0x0f)
    1599                    
    1600                    $C$DW$88        .dwtag  DW_TAG_member
    1601                            .dwattr $C$DW$88, DW_AT_type(*$C$DW$T$48)
    1602                            .dwattr $C$DW$88, DW_AT_name("xRegions")
    1603                            .dwattr $C$DW$88, DW_AT_TI_symbol_name("xRegions")
    1604                            .dwattr $C$DW$88, DW_AT_data_member_location[DW_OP_plus_uconst 0x18]
TI ARM Assembler PC v15.12.1 Wed Feb 22 15:20:20 2017

Tools Copyright (c) 1996-2015 Texas Instruments Incorporated
Main_Blinky.asm                                                      PAGE   31

    1605                            .dwattr $C$DW$88, DW_AT_accessibility(DW_ACCESS_public)
    1606                            .dwattr $C$DW$88, DW_AT_decl_file("H:/EECS_388/TI_ARM_Projects/FreeRTOS823_LM3S_Prototype/Sour
    1607                            .dwattr $C$DW$88, DW_AT_decl_line(0xa1)
    1608                            .dwattr $C$DW$88, DW_AT_decl_column(0x11)
    1609                    
    1610                            .dwattr $C$DW$T$49, DW_AT_decl_file("H:/EECS_388/TI_ARM_Projects/FreeRTOS823_LM3S_Prototype/So
    1611                            .dwattr $C$DW$T$49, DW_AT_decl_line(0x99)
    1612                            .dwattr $C$DW$T$49, DW_AT_decl_column(0x10)
    1613                            .dwendtag $C$DW$T$49
    1614                    
    1615                    $C$DW$T$133     .dwtag  DW_TAG_typedef
    1616                            .dwattr $C$DW$T$133, DW_AT_name("TaskParameters_t")
    1617                            .dwattr $C$DW$T$133, DW_AT_type(*$C$DW$T$49)
    1618                            .dwattr $C$DW$T$133, DW_AT_language(DW_LANG_C)
    1619                            .dwattr $C$DW$T$133, DW_AT_decl_file("H:/EECS_388/TI_ARM_Projects/FreeRTOS823_LM3S_Prototype/S
    1620                            .dwattr $C$DW$T$133, DW_AT_decl_line(0xa2)
    1621                            .dwattr $C$DW$T$133, DW_AT_decl_column(0x03)
    1622                    
    1623                    
    1624                    $C$DW$T$53      .dwtag  DW_TAG_structure_type
    1625                            .dwattr $C$DW$T$53, DW_AT_name("xTASK_STATUS")
    1626                            .dwattr $C$DW$T$53, DW_AT_byte_size(0x20)
    1627                    $C$DW$89        .dwtag  DW_TAG_member
    1628                            .dwattr $C$DW$89, DW_AT_type(*$C$DW$T$50)
    1629                            .dwattr $C$DW$89, DW_AT_name("xHandle")
    1630                            .dwattr $C$DW$89, DW_AT_TI_symbol_name("xHandle")
    1631                            .dwattr $C$DW$89, DW_AT_data_member_location[DW_OP_plus_uconst 0x0]
    1632                            .dwattr $C$DW$89, DW_AT_accessibility(DW_ACCESS_public)
    1633                            .dwattr $C$DW$89, DW_AT_decl_file("H:/EECS_388/TI_ARM_Projects/FreeRTOS823_LM3S_Prototype/Sour
    1634                            .dwattr $C$DW$89, DW_AT_decl_line(0xa8)
    1635                            .dwattr $C$DW$89, DW_AT_decl_column(0x0f)
    1636                    
    1637                    $C$DW$90        .dwtag  DW_TAG_member
    1638                            .dwattr $C$DW$90, DW_AT_type(*$C$DW$T$42)
    1639                            .dwattr $C$DW$90, DW_AT_name("pcTaskName")
    1640                            .dwattr $C$DW$90, DW_AT_TI_symbol_name("pcTaskName")
    1641                            .dwattr $C$DW$90, DW_AT_data_member_location[DW_OP_plus_uconst 0x4]
    1642                            .dwattr $C$DW$90, DW_AT_accessibility(DW_ACCESS_public)
    1643                            .dwattr $C$DW$90, DW_AT_decl_file("H:/EECS_388/TI_ARM_Projects/FreeRTOS823_LM3S_Prototype/Sour
    1644                            .dwattr $C$DW$90, DW_AT_decl_line(0xa9)
    1645                            .dwattr $C$DW$90, DW_AT_decl_column(0x0e)
    1646                    
    1647                    $C$DW$91        .dwtag  DW_TAG_member
    1648                            .dwattr $C$DW$91, DW_AT_type(*$C$DW$T$27)
    1649                            .dwattr $C$DW$91, DW_AT_name("xTaskNumber")
    1650                            .dwattr $C$DW$91, DW_AT_TI_symbol_name("xTaskNumber")
    1651                            .dwattr $C$DW$91, DW_AT_data_member_location[DW_OP_plus_uconst 0x8]
    1652                            .dwattr $C$DW$91, DW_AT_accessibility(DW_ACCESS_public)
    1653                            .dwattr $C$DW$91, DW_AT_decl_file("H:/EECS_388/TI_ARM_Projects/FreeRTOS823_LM3S_Prototype/Sour
    1654                            .dwattr $C$DW$91, DW_AT_decl_line(0xaa)
    1655                            .dwattr $C$DW$91, DW_AT_decl_column(0x0e)
    1656                    
    1657                    $C$DW$92        .dwtag  DW_TAG_member
    1658                            .dwattr $C$DW$92, DW_AT_type(*$C$DW$T$52)
    1659                            .dwattr $C$DW$92, DW_AT_name("eCurrentState")
TI ARM Assembler PC v15.12.1 Wed Feb 22 15:20:20 2017

Tools Copyright (c) 1996-2015 Texas Instruments Incorporated
Main_Blinky.asm                                                      PAGE   32

    1660                            .dwattr $C$DW$92, DW_AT_TI_symbol_name("eCurrentState")
    1661                            .dwattr $C$DW$92, DW_AT_data_member_location[DW_OP_plus_uconst 0xc]
    1662                            .dwattr $C$DW$92, DW_AT_accessibility(DW_ACCESS_public)
    1663                            .dwattr $C$DW$92, DW_AT_decl_file("H:/EECS_388/TI_ARM_Projects/FreeRTOS823_LM3S_Prototype/Sour
    1664                            .dwattr $C$DW$92, DW_AT_decl_line(0xab)
    1665                            .dwattr $C$DW$92, DW_AT_decl_column(0x0d)
    1666                    
    1667                    $C$DW$93        .dwtag  DW_TAG_member
    1668                            .dwattr $C$DW$93, DW_AT_type(*$C$DW$T$27)
    1669                            .dwattr $C$DW$93, DW_AT_name("uxCurrentPriority")
    1670                            .dwattr $C$DW$93, DW_AT_TI_symbol_name("uxCurrentPriority")
    1671                            .dwattr $C$DW$93, DW_AT_data_member_location[DW_OP_plus_uconst 0x10]
    1672                            .dwattr $C$DW$93, DW_AT_accessibility(DW_ACCESS_public)
    1673                            .dwattr $C$DW$93, DW_AT_decl_file("H:/EECS_388/TI_ARM_Projects/FreeRTOS823_LM3S_Prototype/Sour
    1674                            .dwattr $C$DW$93, DW_AT_decl_line(0xac)
    1675                            .dwattr $C$DW$93, DW_AT_decl_column(0x0e)
    1676                    
    1677                    $C$DW$94        .dwtag  DW_TAG_member
    1678                            .dwattr $C$DW$94, DW_AT_type(*$C$DW$T$27)
    1679                            .dwattr $C$DW$94, DW_AT_name("uxBasePriority")
    1680                            .dwattr $C$DW$94, DW_AT_TI_symbol_name("uxBasePriority")
    1681                            .dwattr $C$DW$94, DW_AT_data_member_location[DW_OP_plus_uconst 0x14]
    1682                            .dwattr $C$DW$94, DW_AT_accessibility(DW_ACCESS_public)
    1683                            .dwattr $C$DW$94, DW_AT_decl_file("H:/EECS_388/TI_ARM_Projects/FreeRTOS823_LM3S_Prototype/Sour
    1684                            .dwattr $C$DW$94, DW_AT_decl_line(0xad)
    1685                            .dwattr $C$DW$94, DW_AT_decl_column(0x0e)
    1686                    
    1687                    $C$DW$95        .dwtag  DW_TAG_member
    1688                            .dwattr $C$DW$95, DW_AT_type(*$C$DW$T$26)
    1689                            .dwattr $C$DW$95, DW_AT_name("ulRunTimeCounter")
    1690                            .dwattr $C$DW$95, DW_AT_TI_symbol_name("ulRunTimeCounter")
    1691                            .dwattr $C$DW$95, DW_AT_data_member_location[DW_OP_plus_uconst 0x18]
    1692                            .dwattr $C$DW$95, DW_AT_accessibility(DW_ACCESS_public)
    1693                            .dwattr $C$DW$95, DW_AT_decl_file("H:/EECS_388/TI_ARM_Projects/FreeRTOS823_LM3S_Prototype/Sour
    1694                            .dwattr $C$DW$95, DW_AT_decl_line(0xae)
    1695                            .dwattr $C$DW$95, DW_AT_decl_column(0x0b)
    1696                    
    1697                    $C$DW$96        .dwtag  DW_TAG_member
    1698                            .dwattr $C$DW$96, DW_AT_type(*$C$DW$T$44)
    1699                            .dwattr $C$DW$96, DW_AT_name("usStackHighWaterMark")
    1700                            .dwattr $C$DW$96, DW_AT_TI_symbol_name("usStackHighWaterMark")
    1701                            .dwattr $C$DW$96, DW_AT_data_member_location[DW_OP_plus_uconst 0x1c]
    1702                            .dwattr $C$DW$96, DW_AT_accessibility(DW_ACCESS_public)
    1703                            .dwattr $C$DW$96, DW_AT_decl_file("H:/EECS_388/TI_ARM_Projects/FreeRTOS823_LM3S_Prototype/Sour
    1704                            .dwattr $C$DW$96, DW_AT_decl_line(0xaf)
    1705                            .dwattr $C$DW$96, DW_AT_decl_column(0x0b)
    1706                    
    1707                            .dwattr $C$DW$T$53, DW_AT_decl_file("H:/EECS_388/TI_ARM_Projects/FreeRTOS823_LM3S_Prototype/So
    1708                            .dwattr $C$DW$T$53, DW_AT_decl_line(0xa6)
    1709                            .dwattr $C$DW$T$53, DW_AT_decl_column(0x10)
    1710                            .dwendtag $C$DW$T$53
    1711                    
    1712                    $C$DW$T$134     .dwtag  DW_TAG_typedef
    1713                            .dwattr $C$DW$T$134, DW_AT_name("TaskStatus_t")
    1714                            .dwattr $C$DW$T$134, DW_AT_type(*$C$DW$T$53)
TI ARM Assembler PC v15.12.1 Wed Feb 22 15:20:20 2017

Tools Copyright (c) 1996-2015 Texas Instruments Incorporated
Main_Blinky.asm                                                      PAGE   33

    1715                            .dwattr $C$DW$T$134, DW_AT_language(DW_LANG_C)
    1716                            .dwattr $C$DW$T$134, DW_AT_decl_file("H:/EECS_388/TI_ARM_Projects/FreeRTOS823_LM3S_Prototype/S
    1717                            .dwattr $C$DW$T$134, DW_AT_decl_line(0xb0)
    1718                            .dwattr $C$DW$T$134, DW_AT_decl_column(0x03)
    1719                    
    1720                    
    1721                    $C$DW$T$56      .dwtag  DW_TAG_structure_type
    1722                            .dwattr $C$DW$T$56, DW_AT_name("xTIME_OUT")
    1723                            .dwattr $C$DW$T$56, DW_AT_byte_size(0x08)
    1724                    $C$DW$97        .dwtag  DW_TAG_member
    1725                            .dwattr $C$DW$97, DW_AT_type(*$C$DW$T$55)
    1726                            .dwattr $C$DW$97, DW_AT_name("xOverflowCount")
    1727                            .dwattr $C$DW$97, DW_AT_TI_symbol_name("xOverflowCount")
    1728                            .dwattr $C$DW$97, DW_AT_data_member_location[DW_OP_plus_uconst 0x0]
    1729                            .dwattr $C$DW$97, DW_AT_accessibility(DW_ACCESS_public)
    1730                            .dwattr $C$DW$97, DW_AT_decl_file("H:/EECS_388/TI_ARM_Projects/FreeRTOS823_LM3S_Prototype/Sour
    1731                            .dwattr $C$DW$97, DW_AT_decl_line(0x88)
    1732                            .dwattr $C$DW$97, DW_AT_decl_column(0x0d)
    1733                    
    1734                    $C$DW$98        .dwtag  DW_TAG_member
    1735                            .dwattr $C$DW$98, DW_AT_type(*$C$DW$T$32)
    1736                            .dwattr $C$DW$98, DW_AT_name("xTimeOnEntering")
    1737                            .dwattr $C$DW$98, DW_AT_TI_symbol_name("xTimeOnEntering")
    1738                            .dwattr $C$DW$98, DW_AT_data_member_location[DW_OP_plus_uconst 0x4]
    1739                            .dwattr $C$DW$98, DW_AT_accessibility(DW_ACCESS_public)
    1740                            .dwattr $C$DW$98, DW_AT_decl_file("H:/EECS_388/TI_ARM_Projects/FreeRTOS823_LM3S_Prototype/Sour
    1741                            .dwattr $C$DW$98, DW_AT_decl_line(0x89)
    1742                            .dwattr $C$DW$98, DW_AT_decl_column(0x0d)
    1743                    
    1744                            .dwattr $C$DW$T$56, DW_AT_decl_file("H:/EECS_388/TI_ARM_Projects/FreeRTOS823_LM3S_Prototype/So
    1745                            .dwattr $C$DW$T$56, DW_AT_decl_line(0x86)
    1746                            .dwattr $C$DW$T$56, DW_AT_decl_column(0x10)
    1747                            .dwendtag $C$DW$T$56
    1748                    
    1749                    $C$DW$T$135     .dwtag  DW_TAG_typedef
    1750                            .dwattr $C$DW$T$135, DW_AT_name("TimeOut_t")
    1751                            .dwattr $C$DW$T$135, DW_AT_type(*$C$DW$T$56)
    1752                            .dwattr $C$DW$T$135, DW_AT_language(DW_LANG_C)
    1753                            .dwattr $C$DW$T$135, DW_AT_decl_file("H:/EECS_388/TI_ARM_Projects/FreeRTOS823_LM3S_Prototype/S
    1754                            .dwattr $C$DW$T$135, DW_AT_decl_line(0x8a)
    1755                            .dwattr $C$DW$T$135, DW_AT_decl_column(0x03)
    1756                    
    1757                            .dwattr $C$DW$CU, DW_AT_language(DW_LANG_C)
    1758                    
    1759                    ;***************************************************************
    1760                    ;* DWARF CIE ENTRIES                                           *
    1761                    ;***************************************************************
    1762                    
    1763                    $C$DW$CIE       .dwcie 14
    1764                            .dwcfi  cfa_register, 13
    1765                            .dwcfi  cfa_offset, 0
    1766                            .dwcfi  undefined, 0
    1767                            .dwcfi  undefined, 1
    1768                            .dwcfi  undefined, 2
    1769                            .dwcfi  undefined, 3
TI ARM Assembler PC v15.12.1 Wed Feb 22 15:20:20 2017

Tools Copyright (c) 1996-2015 Texas Instruments Incorporated
Main_Blinky.asm                                                      PAGE   34

    1770                            .dwcfi  same_value, 4
    1771                            .dwcfi  same_value, 5
    1772                            .dwcfi  same_value, 6
    1773                            .dwcfi  same_value, 7
    1774                            .dwcfi  same_value, 8
    1775                            .dwcfi  same_value, 9
    1776                            .dwcfi  same_value, 10
    1777                            .dwcfi  same_value, 11
    1778                            .dwcfi  undefined, 12
    1779                            .dwcfi  undefined, 13
    1780                            .dwcfi  undefined, 14
    1781                            .dwcfi  undefined, 14
    1782                            .dwcfi  undefined, 7
    1783                            .dwendentry
    1784                            .dwendtag $C$DW$CU
    1785                    

--------------------------
Thumb2 Statistics
--------------------------
Number of Thumb2 ins converted to Thumb = 0 (0%)
Number of Thumb ins in input = 44 (80%)
Number of Thumb2 ins encoded as Thumb2 = 11 (100%)
Number of Thumb2 ins converted to 2 OPND Thumb = 0


No Assembly Errors, No Assembly Warnings
