TI ARM Assembler PC v15.12.1 Wed Apr 19 15:29:26 2017

Tools Copyright (c) 1996-2015 Texas Instruments Incorporated
Task_TimeOfDay.asm                                                   PAGE    1

       1                    ;******************************************************************************
       2                    ;* TI ARM C/C++ Codegen                                       PC v15.12.1.LTS *
       3                    ;* Date/Time created: Wed Apr 19 15:29:24 2017                                *
       4                    ;******************************************************************************
       5                            .compiler_opts --abi=eabi --arm_vmrs_si_workaround=off --code_state=16 --diag_wrap=off --disab
       6 00000000                   .thumb
       7                    
       8                    $C$DW$CU        .dwtag  DW_TAG_compile_unit
       9                            .dwattr $C$DW$CU, DW_AT_name("../Tasks/Task_TimeOfDay.c")
      10                            .dwattr $C$DW$CU, DW_AT_producer("TI TI ARM C/C++ Codegen PC v15.12.1.LTS Copyright (c) 1996-2
      11                            .dwattr $C$DW$CU, DW_AT_TI_version(0x01)
      12                            .dwattr $C$DW$CU, DW_AT_comp_dir("H:\EECS_388\TI_ARM_Projects\Project 8\Debug")
      13                    
      14                    $C$DW$1 .dwtag  DW_TAG_subprogram
      15                            .dwattr $C$DW$1, DW_AT_name("SysCtlPeripheralEnable")
      16                            .dwattr $C$DW$1, DW_AT_TI_symbol_name("SysCtlPeripheralEnable")
      17                            .dwattr $C$DW$1, DW_AT_declaration
      18                            .dwattr $C$DW$1, DW_AT_external
      19                            .dwattr $C$DW$1, DW_AT_decl_file("C:/TI_CodeComposer/StellarisWare-LM3S1968/driverlib/sysctl.h
      20                            .dwattr $C$DW$1, DW_AT_decl_line(0x24d)
      21                            .dwattr $C$DW$1, DW_AT_decl_column(0x0d)
      22                    $C$DW$2 .dwtag  DW_TAG_formal_parameter
      23                            .dwattr $C$DW$2, DW_AT_type(*$C$DW$T$13)
      24                    
      25                            .dwendtag $C$DW$1
      26                    
      27                    
      28                    $C$DW$3 .dwtag  DW_TAG_subprogram
      29                            .dwattr $C$DW$3, DW_AT_name("IntMasterEnable")
      30                            .dwattr $C$DW$3, DW_AT_TI_symbol_name("IntMasterEnable")
      31                            .dwattr $C$DW$3, DW_AT_type(*$C$DW$T$80)
      32                            .dwattr $C$DW$3, DW_AT_declaration
      33                            .dwattr $C$DW$3, DW_AT_external
      34                            .dwattr $C$DW$3, DW_AT_decl_file("C:/TI_CodeComposer/StellarisWare-LM3S1968/driverlib/interrup
      35                            .dwattr $C$DW$3, DW_AT_decl_line(0x43)
      36                            .dwattr $C$DW$3, DW_AT_decl_column(0x11)
      37                            .dwendtag $C$DW$3
      38                    
      39                    
      40                    $C$DW$4 .dwtag  DW_TAG_subprogram
      41                            .dwattr $C$DW$4, DW_AT_name("IntRegister")
      42                            .dwattr $C$DW$4, DW_AT_TI_symbol_name("IntRegister")
      43                            .dwattr $C$DW$4, DW_AT_declaration
      44                            .dwattr $C$DW$4, DW_AT_external
      45                            .dwattr $C$DW$4, DW_AT_decl_file("C:/TI_CodeComposer/StellarisWare-LM3S1968/driverlib/interrup
      46                            .dwattr $C$DW$4, DW_AT_decl_line(0x45)
      47                            .dwattr $C$DW$4, DW_AT_decl_column(0x0d)
      48                    $C$DW$5 .dwtag  DW_TAG_formal_parameter
      49                            .dwattr $C$DW$5, DW_AT_type(*$C$DW$T$13)
      50                    
      51                    $C$DW$6 .dwtag  DW_TAG_formal_parameter
      52                            .dwattr $C$DW$6, DW_AT_type(*$C$DW$T$75)
      53                    
      54                            .dwendtag $C$DW$4
      55                    
TI ARM Assembler PC v15.12.1 Wed Apr 19 15:29:26 2017

Tools Copyright (c) 1996-2015 Texas Instruments Incorporated
Task_TimeOfDay.asm                                                   PAGE    2

      56                    
      57                    $C$DW$7 .dwtag  DW_TAG_subprogram
      58                            .dwattr $C$DW$7, DW_AT_name("IntUnregister")
      59                            .dwattr $C$DW$7, DW_AT_TI_symbol_name("IntUnregister")
      60                            .dwattr $C$DW$7, DW_AT_declaration
      61                            .dwattr $C$DW$7, DW_AT_external
      62                            .dwattr $C$DW$7, DW_AT_decl_file("C:/TI_CodeComposer/StellarisWare-LM3S1968/driverlib/interrup
      63                            .dwattr $C$DW$7, DW_AT_decl_line(0x46)
      64                            .dwattr $C$DW$7, DW_AT_decl_column(0x0d)
      65                    $C$DW$8 .dwtag  DW_TAG_formal_parameter
      66                            .dwattr $C$DW$8, DW_AT_type(*$C$DW$T$13)
      67                    
      68                            .dwendtag $C$DW$7
      69                    
      70                    
      71                    $C$DW$9 .dwtag  DW_TAG_subprogram
      72                            .dwattr $C$DW$9, DW_AT_name("IntEnable")
      73                            .dwattr $C$DW$9, DW_AT_TI_symbol_name("IntEnable")
      74                            .dwattr $C$DW$9, DW_AT_declaration
      75                            .dwattr $C$DW$9, DW_AT_external
      76                            .dwattr $C$DW$9, DW_AT_decl_file("C:/TI_CodeComposer/StellarisWare-LM3S1968/driverlib/interrup
      77                            .dwattr $C$DW$9, DW_AT_decl_line(0x4c)
      78                            .dwattr $C$DW$9, DW_AT_decl_column(0x0d)
      79                    $C$DW$10        .dwtag  DW_TAG_formal_parameter
      80                            .dwattr $C$DW$10, DW_AT_type(*$C$DW$T$13)
      81                    
      82                            .dwendtag $C$DW$9
      83                    
      84                    
      85                    $C$DW$11        .dwtag  DW_TAG_subprogram
      86                            .dwattr $C$DW$11, DW_AT_name("IntDisable")
      87                            .dwattr $C$DW$11, DW_AT_TI_symbol_name("IntDisable")
      88                            .dwattr $C$DW$11, DW_AT_declaration
      89                            .dwattr $C$DW$11, DW_AT_external
      90                            .dwattr $C$DW$11, DW_AT_decl_file("C:/TI_CodeComposer/StellarisWare-LM3S1968/driverlib/interru
      91                            .dwattr $C$DW$11, DW_AT_decl_line(0x4d)
      92                            .dwattr $C$DW$11, DW_AT_decl_column(0x0d)
      93                    $C$DW$12        .dwtag  DW_TAG_formal_parameter
      94                            .dwattr $C$DW$12, DW_AT_type(*$C$DW$T$13)
      95                    
      96                            .dwendtag $C$DW$11
      97                    
      98                    
      99                    $C$DW$13        .dwtag  DW_TAG_subprogram
     100                            .dwattr $C$DW$13, DW_AT_name("RIT128x96x4StringDraw")
     101                            .dwattr $C$DW$13, DW_AT_TI_symbol_name("RIT128x96x4StringDraw")
     102                            .dwattr $C$DW$13, DW_AT_declaration
     103                            .dwattr $C$DW$13, DW_AT_external
     104                            .dwattr $C$DW$13, DW_AT_decl_file("H:/EECS_388/TI_ARM_Projects/Project 8/Drivers/rit128x96x4.h
     105                            .dwattr $C$DW$13, DW_AT_decl_line(0x23)
     106                            .dwattr $C$DW$13, DW_AT_decl_column(0x0d)
     107                    $C$DW$14        .dwtag  DW_TAG_formal_parameter
     108                            .dwattr $C$DW$14, DW_AT_type(*$C$DW$T$42)
     109                    
     110                    $C$DW$15        .dwtag  DW_TAG_formal_parameter
TI ARM Assembler PC v15.12.1 Wed Apr 19 15:29:26 2017

Tools Copyright (c) 1996-2015 Texas Instruments Incorporated
Task_TimeOfDay.asm                                                   PAGE    3

     111                            .dwattr $C$DW$15, DW_AT_type(*$C$DW$T$13)
     112                    
     113                    $C$DW$16        .dwtag  DW_TAG_formal_parameter
     114                            .dwattr $C$DW$16, DW_AT_type(*$C$DW$T$13)
     115                    
     116                    $C$DW$17        .dwtag  DW_TAG_formal_parameter
     117                            .dwattr $C$DW$17, DW_AT_type(*$C$DW$T$6)
     118                    
     119                            .dwendtag $C$DW$13
     120                    
     121                    
     122                    $C$DW$18        .dwtag  DW_TAG_subprogram
     123                            .dwattr $C$DW$18, DW_AT_name("sprintf")
     124                            .dwattr $C$DW$18, DW_AT_TI_symbol_name("sprintf")
     125                            .dwattr $C$DW$18, DW_AT_type(*$C$DW$T$10)
     126                            .dwattr $C$DW$18, DW_AT_declaration
     127                            .dwattr $C$DW$18, DW_AT_external
     128                            .dwattr $C$DW$18, DW_AT_decl_file("C:/TI_CodeComposer/ccsv6/tools/compiler/ti-cgt-arm_15.12.1.
     129                            .dwattr $C$DW$18, DW_AT_decl_line(0xf9)
     130                            .dwattr $C$DW$18, DW_AT_decl_column(0x19)
     131                    $C$DW$19        .dwtag  DW_TAG_formal_parameter
     132                            .dwattr $C$DW$19, DW_AT_type(*$C$DW$T$104)
     133                    
     134                    $C$DW$20        .dwtag  DW_TAG_formal_parameter
     135                            .dwattr $C$DW$20, DW_AT_type(*$C$DW$T$42)
     136                    
     137                    $C$DW$21        .dwtag  DW_TAG_unspecified_parameters
     138                    
     139                            .dwendtag $C$DW$18
     140                    
     141                    
     142                    $C$DW$22        .dwtag  DW_TAG_subprogram
     143                            .dwattr $C$DW$22, DW_AT_name("xQueueGenericSend")
     144                            .dwattr $C$DW$22, DW_AT_TI_symbol_name("xQueueGenericSend")
     145                            .dwattr $C$DW$22, DW_AT_type(*$C$DW$T$55)
     146                            .dwattr $C$DW$22, DW_AT_declaration
     147                            .dwattr $C$DW$22, DW_AT_external
     148                            .dwattr $C$DW$22, DW_AT_decl_file("H:\EECS_388\TI_ARM_Projects\Project 8\Source\include\queue.
     149                            .dwattr $C$DW$22, DW_AT_decl_line(0x250)
     150                            .dwattr $C$DW$22, DW_AT_decl_column(0x0c)
     151                    $C$DW$23        .dwtag  DW_TAG_formal_parameter
     152                            .dwattr $C$DW$23, DW_AT_type(*$C$DW$T$63)
     153                    
     154                    $C$DW$24        .dwtag  DW_TAG_formal_parameter
     155                            .dwattr $C$DW$24, DW_AT_type(*$C$DW$T$90)
     156                    
     157                    $C$DW$25        .dwtag  DW_TAG_formal_parameter
     158                            .dwattr $C$DW$25, DW_AT_type(*$C$DW$T$32)
     159                    
     160                    $C$DW$26        .dwtag  DW_TAG_formal_parameter
     161                            .dwattr $C$DW$26, DW_AT_type(*$C$DW$T$107)
     162                    
     163                            .dwendtag $C$DW$22
     164                    
     165                    
TI ARM Assembler PC v15.12.1 Wed Apr 19 15:29:26 2017

Tools Copyright (c) 1996-2015 Texas Instruments Incorporated
Task_TimeOfDay.asm                                                   PAGE    4

     166                    $C$DW$27        .dwtag  DW_TAG_subprogram
     167                            .dwattr $C$DW$27, DW_AT_name("xQueueGenericReceive")
     168                            .dwattr $C$DW$27, DW_AT_TI_symbol_name("xQueueGenericReceive")
     169                            .dwattr $C$DW$27, DW_AT_type(*$C$DW$T$55)
     170                            .dwattr $C$DW$27, DW_AT_declaration
     171                            .dwattr $C$DW$27, DW_AT_external
     172                            .dwattr $C$DW$27, DW_AT_decl_file("H:\EECS_388\TI_ARM_Projects\Project 8\Source\include\queue.
     173                            .dwattr $C$DW$27, DW_AT_decl_line(0x391)
     174                            .dwattr $C$DW$27, DW_AT_decl_column(0x0c)
     175                    $C$DW$28        .dwtag  DW_TAG_formal_parameter
     176                            .dwattr $C$DW$28, DW_AT_type(*$C$DW$T$63)
     177                    
     178                    $C$DW$29        .dwtag  DW_TAG_formal_parameter
     179                            .dwattr $C$DW$29, DW_AT_type(*$C$DW$T$71)
     180                    
     181                    $C$DW$30        .dwtag  DW_TAG_formal_parameter
     182                            .dwattr $C$DW$30, DW_AT_type(*$C$DW$T$32)
     183                    
     184                    $C$DW$31        .dwtag  DW_TAG_formal_parameter
     185                            .dwattr $C$DW$31, DW_AT_type(*$C$DW$T$107)
     186                    
     187                            .dwendtag $C$DW$27
     188                    
     189                    
     190                    $C$DW$32        .dwtag  DW_TAG_subprogram
     191                            .dwattr $C$DW$32, DW_AT_name("xQueueGenericCreate")
     192                            .dwattr $C$DW$32, DW_AT_TI_symbol_name("xQueueGenericCreate")
     193                            .dwattr $C$DW$32, DW_AT_type(*$C$DW$T$63)
     194                            .dwattr $C$DW$32, DW_AT_declaration
     195                            .dwattr $C$DW$32, DW_AT_external
     196                            .dwattr $C$DW$32, DW_AT_decl_file("H:\EECS_388\TI_ARM_Projects\Project 8\Source\include\queue.
     197                            .dwattr $C$DW$32, DW_AT_decl_line(0x606)
     198                            .dwattr $C$DW$32, DW_AT_decl_column(0x0f)
     199                    $C$DW$33        .dwtag  DW_TAG_formal_parameter
     200                            .dwattr $C$DW$33, DW_AT_type(*$C$DW$T$65)
     201                    
     202                    $C$DW$34        .dwtag  DW_TAG_formal_parameter
     203                            .dwattr $C$DW$34, DW_AT_type(*$C$DW$T$65)
     204                    
     205                    $C$DW$35        .dwtag  DW_TAG_formal_parameter
     206                            .dwattr $C$DW$35, DW_AT_type(*$C$DW$T$66)
     207                    
     208                            .dwendtag $C$DW$32
     209                    
     210 00000000                   .sect   ".const:g_ppulTimerIntMap"
     211                            .clink
     212                            .align  4
     213                            .elfsym g_ppulTimerIntMap,SYM_SIZE(96)
     214 00000000           g_ppulTimerIntMap:
     215 00000000 40030000          .bits   1073938432,32                   ; g_ppulTimerIntMap[0][0] @ 0
     216 00000004 00000023          .bits   35,32                   ; g_ppulTimerIntMap[0][1] @ 32
     217 00000008 40031000          .bits   1073942528,32                   ; g_ppulTimerIntMap[1][0] @ 64
     218 0000000c 00000025          .bits   37,32                   ; g_ppulTimerIntMap[1][1] @ 96
     219 00000010 40032000          .bits   1073946624,32                   ; g_ppulTimerIntMap[2][0] @ 128
     220 00000014 00000027          .bits   39,32                   ; g_ppulTimerIntMap[2][1] @ 160
TI ARM Assembler PC v15.12.1 Wed Apr 19 15:29:26 2017

Tools Copyright (c) 1996-2015 Texas Instruments Incorporated
Task_TimeOfDay.asm                                                   PAGE    5

     221 00000018 40033000          .bits   1073950720,32                   ; g_ppulTimerIntMap[3][0] @ 192
     222 0000001c 00000033          .bits   51,32                   ; g_ppulTimerIntMap[3][1] @ 224
     223 00000020 40034000          .bits   1073954816,32                   ; g_ppulTimerIntMap[4][0] @ 256
     224 00000024 00000056          .bits   86,32                   ; g_ppulTimerIntMap[4][1] @ 288
     225 00000028 40035000          .bits   1073958912,32                   ; g_ppulTimerIntMap[5][0] @ 320
     226 0000002c 0000006C          .bits   108,32                  ; g_ppulTimerIntMap[5][1] @ 352
     227 00000030 40036000          .bits   1073963008,32                   ; g_ppulTimerIntMap[6][0] @ 384
     228 00000034 0000006E          .bits   110,32                  ; g_ppulTimerIntMap[6][1] @ 416
     229 00000038 40037000          .bits   1073967104,32                   ; g_ppulTimerIntMap[7][0] @ 448
     230 0000003c 00000070          .bits   112,32                  ; g_ppulTimerIntMap[7][1] @ 480
     231 00000040 4004C000          .bits   1074053120,32                   ; g_ppulTimerIntMap[8][0] @ 512
     232 00000044 00000072          .bits   114,32                  ; g_ppulTimerIntMap[8][1] @ 544
     233 00000048 4004D000          .bits   1074057216,32                   ; g_ppulTimerIntMap[9][0] @ 576
     234 0000004c 00000074          .bits   116,32                  ; g_ppulTimerIntMap[9][1] @ 608
     235 00000050 4004E000          .bits   1074061312,32                   ; g_ppulTimerIntMap[10][0] @ 640
     236 00000054 00000076          .bits   118,32                  ; g_ppulTimerIntMap[10][1] @ 672
     237 00000058 4004F000          .bits   1074065408,32                   ; g_ppulTimerIntMap[11][0] @ 704
     238 0000005c 00000078          .bits   120,32                  ; g_ppulTimerIntMap[11][1] @ 736
     239                    
     240                    $C$DW$36        .dwtag  DW_TAG_variable
     241                            .dwattr $C$DW$36, DW_AT_name("g_ppulTimerIntMap")
     242                            .dwattr $C$DW$36, DW_AT_TI_symbol_name("g_ppulTimerIntMap")
     243                            .dwattr $C$DW$36, DW_AT_type(*$C$DW$T$136)
     244                            .dwattr $C$DW$36, DW_AT_location[DW_OP_addr g_ppulTimerIntMap]
     245                            .dwattr $C$DW$36, DW_AT_decl_file("C:/TI_CodeComposer/StellarisWare-LM3S1968/driverlib/timer.c
     246                            .dwattr $C$DW$36, DW_AT_decl_line(0x3c)
     247                            .dwattr $C$DW$36, DW_AT_decl_column(0x1c)
     248                    
     249                            .global TimerCount
     250 00000000                   .data
     251                            .align  4
     252                            .elfsym TimerCount,SYM_SIZE(4)
     253 00000000           TimerCount:
     254 00000000 00000000          .bits   0,32                    ; TimerCount @ 0
     255                    
     256                    $C$DW$37        .dwtag  DW_TAG_variable
     257                            .dwattr $C$DW$37, DW_AT_name("TimerCount")
     258                            .dwattr $C$DW$37, DW_AT_TI_symbol_name("TimerCount")
     259                            .dwattr $C$DW$37, DW_AT_location[DW_OP_addr TimerCount]
     260                            .dwattr $C$DW$37, DW_AT_type(*$C$DW$T$26)
     261                            .dwattr $C$DW$37, DW_AT_external
     262                            .dwattr $C$DW$37, DW_AT_decl_file("../Tasks/Task_TimeOfDay.c")
     263                            .dwattr $C$DW$37, DW_AT_decl_line(0x25)
     264                            .dwattr $C$DW$37, DW_AT_decl_column(0x11)
     265                    
     266 00000004                   .data
     267                            .align  4
     268                            .elfsym hours,SYM_SIZE(4)
     269 00000004           hours:
     270 00000004 00000000          .bits   0,32                    ; hours @ 0
     271                    
     272                    $C$DW$38        .dwtag  DW_TAG_variable
     273                            .dwattr $C$DW$38, DW_AT_name("hours")
     274                            .dwattr $C$DW$38, DW_AT_TI_symbol_name("hours")
     275                            .dwattr $C$DW$38, DW_AT_type(*$C$DW$T$26)
TI ARM Assembler PC v15.12.1 Wed Apr 19 15:29:26 2017

Tools Copyright (c) 1996-2015 Texas Instruments Incorporated
Task_TimeOfDay.asm                                                   PAGE    6

     276                            .dwattr $C$DW$38, DW_AT_location[DW_OP_addr hours]
     277                            .dwattr $C$DW$38, DW_AT_decl_file("../Tasks/Task_TimeOfDay.c")
     278                            .dwattr $C$DW$38, DW_AT_decl_line(0x2c)
     279                            .dwattr $C$DW$38, DW_AT_decl_column(0x11)
     280                    
     281 00000008                   .data
     282                            .align  4
     283                            .elfsym minutes,SYM_SIZE(4)
     284 00000008           minutes:
     285 00000008 00000000          .bits   0,32                    ; minutes @ 0
     286                    
     287                    $C$DW$39        .dwtag  DW_TAG_variable
     288                            .dwattr $C$DW$39, DW_AT_name("minutes")
     289                            .dwattr $C$DW$39, DW_AT_TI_symbol_name("minutes")
     290                            .dwattr $C$DW$39, DW_AT_type(*$C$DW$T$26)
     291                            .dwattr $C$DW$39, DW_AT_location[DW_OP_addr minutes]
     292                            .dwattr $C$DW$39, DW_AT_decl_file("../Tasks/Task_TimeOfDay.c")
     293                            .dwattr $C$DW$39, DW_AT_decl_line(0x2d)
     294                            .dwattr $C$DW$39, DW_AT_decl_column(0x11)
     295                    
     296 0000000c                   .data
     297                            .align  4
     298                            .elfsym seconds,SYM_SIZE(4)
     299 0000000c           seconds:
     300 0000000c 00000000          .bits   0,32                    ; seconds @ 0
     301                    
     302                    $C$DW$40        .dwtag  DW_TAG_variable
     303                            .dwattr $C$DW$40, DW_AT_name("seconds")
     304                            .dwattr $C$DW$40, DW_AT_TI_symbol_name("seconds")
     305                            .dwattr $C$DW$40, DW_AT_type(*$C$DW$T$26)
     306                            .dwattr $C$DW$40, DW_AT_location[DW_OP_addr seconds]
     307                            .dwattr $C$DW$40, DW_AT_decl_file("../Tasks/Task_TimeOfDay.c")
     308                            .dwattr $C$DW$40, DW_AT_decl_line(0x2e)
     309                            .dwattr $C$DW$40, DW_AT_decl_column(0x11)
     310                    
     311 00000010                   .data
     312                            .align  4
     313                            .elfsym centiSeconds,SYM_SIZE(4)
     314 00000010           centiSeconds:
     315 00000010 00000000          .bits   0,32                    ; centiSeconds @ 0
     316                    
     317                    $C$DW$41        .dwtag  DW_TAG_variable
     318                            .dwattr $C$DW$41, DW_AT_name("centiSeconds")
     319                            .dwattr $C$DW$41, DW_AT_TI_symbol_name("centiSeconds")
     320                            .dwattr $C$DW$41, DW_AT_type(*$C$DW$T$26)
     321                            .dwattr $C$DW$41, DW_AT_location[DW_OP_addr centiSeconds]
     322                            .dwattr $C$DW$41, DW_AT_decl_file("../Tasks/Task_TimeOfDay.c")
     323                            .dwattr $C$DW$41, DW_AT_decl_line(0x2f)
     324                            .dwattr $C$DW$41, DW_AT_decl_column(0x11)
     325                    
     326                            .global HourString
     327                            .common HourString,24,1
     328                    $C$DW$42        .dwtag  DW_TAG_variable
     329                            .dwattr $C$DW$42, DW_AT_name("HourString")
     330                            .dwattr $C$DW$42, DW_AT_TI_symbol_name("HourString")
TI ARM Assembler PC v15.12.1 Wed Apr 19 15:29:26 2017

Tools Copyright (c) 1996-2015 Texas Instruments Incorporated
Task_TimeOfDay.asm                                                   PAGE    7

     331                            .dwattr $C$DW$42, DW_AT_location[DW_OP_addr HourString]
     332                            .dwattr $C$DW$42, DW_AT_type(*$C$DW$T$152)
     333                            .dwattr $C$DW$42, DW_AT_external
     334                            .dwattr $C$DW$42, DW_AT_decl_file("../Tasks/Task_TimeOfDay.c")
     335                            .dwattr $C$DW$42, DW_AT_decl_line(0x31)
     336                            .dwattr $C$DW$42, DW_AT_decl_column(0x06)
     337                    
     338                            .global MinuteString
     339                            .common MinuteString,24,1
     340                    $C$DW$43        .dwtag  DW_TAG_variable
     341                            .dwattr $C$DW$43, DW_AT_name("MinuteString")
     342                            .dwattr $C$DW$43, DW_AT_TI_symbol_name("MinuteString")
     343                            .dwattr $C$DW$43, DW_AT_location[DW_OP_addr MinuteString]
     344                            .dwattr $C$DW$43, DW_AT_type(*$C$DW$T$152)
     345                            .dwattr $C$DW$43, DW_AT_external
     346                            .dwattr $C$DW$43, DW_AT_decl_file("../Tasks/Task_TimeOfDay.c")
     347                            .dwattr $C$DW$43, DW_AT_decl_line(0x32)
     348                            .dwattr $C$DW$43, DW_AT_decl_column(0x06)
     349                    
     350                            .global SecondString
     351                            .common SecondString,24,1
     352                    $C$DW$44        .dwtag  DW_TAG_variable
     353                            .dwattr $C$DW$44, DW_AT_name("SecondString")
     354                            .dwattr $C$DW$44, DW_AT_TI_symbol_name("SecondString")
     355                            .dwattr $C$DW$44, DW_AT_location[DW_OP_addr SecondString]
     356                            .dwattr $C$DW$44, DW_AT_type(*$C$DW$T$152)
     357                            .dwattr $C$DW$44, DW_AT_external
     358                            .dwattr $C$DW$44, DW_AT_decl_file("../Tasks/Task_TimeOfDay.c")
     359                            .dwattr $C$DW$44, DW_AT_decl_line(0x33)
     360                            .dwattr $C$DW$44, DW_AT_decl_column(0x06)
     361                    
     362                            .global CentiSecondString
     363                            .common CentiSecondString,24,1
     364                    $C$DW$45        .dwtag  DW_TAG_variable
     365                            .dwattr $C$DW$45, DW_AT_name("CentiSecondString")
     366                            .dwattr $C$DW$45, DW_AT_TI_symbol_name("CentiSecondString")
     367                            .dwattr $C$DW$45, DW_AT_location[DW_OP_addr CentiSecondString]
     368                            .dwattr $C$DW$45, DW_AT_type(*$C$DW$T$152)
     369                            .dwattr $C$DW$45, DW_AT_external
     370                            .dwattr $C$DW$45, DW_AT_decl_file("../Tasks/Task_TimeOfDay.c")
     371                            .dwattr $C$DW$45, DW_AT_decl_line(0x34)
     372                            .dwattr $C$DW$45, DW_AT_decl_column(0x06)
     373                    
     374                            .global Timer_0_A_Semaphore
     375                            .common Timer_0_A_Semaphore,4,4
     376                    $C$DW$46        .dwtag  DW_TAG_variable
     377                            .dwattr $C$DW$46, DW_AT_name("Timer_0_A_Semaphore")
     378                            .dwattr $C$DW$46, DW_AT_TI_symbol_name("Timer_0_A_Semaphore")
     379                            .dwattr $C$DW$46, DW_AT_location[DW_OP_addr Timer_0_A_Semaphore]
     380                            .dwattr $C$DW$46, DW_AT_type(*$C$DW$T$64)
     381                            .dwattr $C$DW$46, DW_AT_external
     382                            .dwattr $C$DW$46, DW_AT_decl_file("../Tasks/Task_TimeOfDay.c")
     383                            .dwattr $C$DW$46, DW_AT_decl_line(0x35)
     384                            .dwattr $C$DW$46, DW_AT_decl_column(0x13)
     385                    
TI ARM Assembler PC v15.12.1 Wed Apr 19 15:29:26 2017

Tools Copyright (c) 1996-2015 Texas Instruments Incorporated
Task_TimeOfDay.asm                                                   PAGE    8

     386                    ;       C:\TI_CodeComposer\ccsv6\tools\compiler\ti-cgt-arm_15.12.1.LTS\bin\armacpia.exe -@C:\\Users\\S
     387 00000000                   .sect   ".text"
     388                            .clink
     389                            .thumbfunc TimerIntNumberGet
     390 00000000                   .thumb
     391                    
     392                    $C$DW$47        .dwtag  DW_TAG_subprogram
     393                            .dwattr $C$DW$47, DW_AT_name("TimerIntNumberGet")
     394                            .dwattr $C$DW$47, DW_AT_low_pc(TimerIntNumberGet)
     395                            .dwattr $C$DW$47, DW_AT_high_pc(0x00)
     396                            .dwattr $C$DW$47, DW_AT_TI_symbol_name("TimerIntNumberGet")
     397                            .dwattr $C$DW$47, DW_AT_type(*$C$DW$T$12)
     398                            .dwattr $C$DW$47, DW_AT_TI_begin_file("C:/TI_CodeComposer/StellarisWare-LM3S1968/driverlib/tim
     399                            .dwattr $C$DW$47, DW_AT_TI_begin_line(0x74)
     400                            .dwattr $C$DW$47, DW_AT_TI_begin_column(0x01)
     401                            .dwattr $C$DW$47, DW_AT_decl_file("C:/TI_CodeComposer/StellarisWare-LM3S1968/driverlib/timer.c
     402                            .dwattr $C$DW$47, DW_AT_decl_line(0x74)
     403                            .dwattr $C$DW$47, DW_AT_decl_column(0x01)
     404                            .dwattr $C$DW$47, DW_AT_TI_max_frame_size(0x08)
     405                            .dwpsn  file "C:/TI_CodeComposer/StellarisWare-LM3S1968/driverlib/timer.c",line 117,column 1,i
     406                    
     407                            .dwfde $C$DW$CIE, TimerIntNumberGet
     408                    $C$DW$48        .dwtag  DW_TAG_formal_parameter
     409                            .dwattr $C$DW$48, DW_AT_name("ulBase")
     410                            .dwattr $C$DW$48, DW_AT_TI_symbol_name("ulBase")
     411                            .dwattr $C$DW$48, DW_AT_type(*$C$DW$T$13)
     412                            .dwattr $C$DW$48, DW_AT_location[DW_OP_reg0]
     413                    
     414                    
     415                    ;*****************************************************************************
     416                    ;* FUNCTION NAME: TimerIntNumberGet                                          *
     417                    ;*                                                                           *
     418                    ;*   Regs Modified     : A1,A2,A3,SP,SR                                      *
     419                    ;*   Regs Used         : A1,A2,A3,SP,LR,SR                                   *
     420                    ;*   Local Frame Size  : 0 Args + 8 Auto + 0 Save = 8 byte                   *
     421                    ;*****************************************************************************
     422 00000000           TimerIntNumberGet:
     423                    ;* --------------------------------------------------------------------------*
     424                            .dwcfi  cfa_offset, 0
     425 00000000 0D08F1AD          SUB       SP, SP, #8            ; [DPU_3_PIPE]  ; [KEEP 32-BIT INS]
     426                            .dwcfi  cfa_offset, 8
     427                    $C$DW$49        .dwtag  DW_TAG_variable
     428                            .dwattr $C$DW$49, DW_AT_name("ulBase")
     429                            .dwattr $C$DW$49, DW_AT_TI_symbol_name("ulBase")
     430                            .dwattr $C$DW$49, DW_AT_type(*$C$DW$T$13)
     431                            .dwattr $C$DW$49, DW_AT_location[DW_OP_breg13 0]
     432                    
     433                    $C$DW$50        .dwtag  DW_TAG_variable
     434                            .dwattr $C$DW$50, DW_AT_name("ulIdx")
     435                            .dwattr $C$DW$50, DW_AT_TI_symbol_name("ulIdx")
     436                            .dwattr $C$DW$50, DW_AT_type(*$C$DW$T$13)
     437                            .dwattr $C$DW$50, DW_AT_location[DW_OP_breg13 4]
     438                    
     439 00000004 9000              STR       A1, [SP, #0]          ; [DPU_3_PIPE] |117|  ; [ORIG 16-BIT INS]
     440                            .dwpsn  file "C:/TI_CodeComposer/StellarisWare-LM3S1968/driverlib/timer.c",line 124,column 9,i
TI ARM Assembler PC v15.12.1 Wed Apr 19 15:29:26 2017

Tools Copyright (c) 1996-2015 Texas Instruments Incorporated
Task_TimeOfDay.asm                                                   PAGE    9

     441 00000006 2000              MOVS      A1, #0                ; [DPU_3_PIPE] |124|  ; [ORIG 16-BIT INS]
     442 00000008 9001              STR       A1, [SP, #4]          ; [DPU_3_PIPE] |124|  ; [ORIG 16-BIT INS]
     443                            .dwpsn  file "C:/TI_CodeComposer/StellarisWare-LM3S1968/driverlib/timer.c",line 124,column 20,
     444 0000000a 9801              LDR       A1, [SP, #4]          ; [DPU_3_PIPE] |124|  ; [ORIG 16-BIT INS]
     445 0000000c 280C              CMP       A1, #12               ; [DPU_3_PIPE] |124|  ; [ORIG 16-BIT INS]
     446 0000000e D211              BCS       ||$C$L3||             ; [DPU_3_PIPE] |124|  ; [ORIG 16-BIT INS]
     447                            ; BRANCHCC OCCURS {||$C$L3||}    ; [] |124| 
     448                    ;* --------------------------------------------------------------------------*
     449                    ;*   BEGIN LOOP ||$C$L1||
     450                    ;*
     451                    ;*   Loop source line                : 124
     452                    ;*   Loop closing brace source line  : 137
     453                    ;*   Known Minimum Trip Count        : 1
     454                    ;*   Known Maximum Trip Count        : 4294967295
     455                    ;*   Known Max Trip Count Factor     : 1
     456                    ;* --------------------------------------------------------------------------*
     457 00000010           ||$C$L1||:    
     458                            .dwpsn  file "C:/TI_CodeComposer/StellarisWare-LM3S1968/driverlib/timer.c",line 130,column 9,i
     459 00000010 9901              LDR       A2, [SP, #4]          ; [DPU_3_PIPE] |130|  ; [ORIG 16-BIT INS]
     460 00000012 4AAC              LDR       A3, $C$CON1           ; [DPU_3_PIPE] |130|  ; [ORIG 16-BIT INS]
     461 00000014 9800              LDR       A1, [SP, #0]          ; [DPU_3_PIPE] |130|  ; [ORIG 16-BIT INS]
     462 00000016 1031F852          LDR       A2, [A3, +A2, LSL #3] ; [DPU_3_PIPE] |130|  ; [KEEP 32-BIT INS]
     463 0000001a 4288              CMP       A1, A2                ; [DPU_3_PIPE] |130|  ; [ORIG 16-BIT INS]
     464 0000001c D104              BNE       ||$C$L2||             ; [DPU_3_PIPE] |130|  ; [ORIG 16-BIT INS]
     465                            ; BRANCHCC OCCURS {||$C$L2||}    ; [] |130| 
     466                    ;* --------------------------------------------------------------------------*
     467                            .dwpsn  file "C:/TI_CodeComposer/StellarisWare-LM3S1968/driverlib/timer.c",line 135,column 13,
     468 0000001e 9801              LDR       A1, [SP, #4]          ; [DPU_3_PIPE] |135|  ; [ORIG 16-BIT INS]
     469 00000020 49A9              LDR       A2, $C$CON2           ; [DPU_3_PIPE] |135|  ; [ORIG 16-BIT INS]
     470 00000022 0030F851          LDR       A1, [A2, +A1, LSL #3] ; [DPU_3_PIPE] |135|  ; [KEEP 32-BIT INS]
     471 00000026 E007              B         ||$C$L4||             ; [DPU_3_PIPE] |135|  ; [ORIG 16-BIT INS]
     472                            ; BRANCH OCCURS {||$C$L4||}      ; [] |135| 
     473                    ;* --------------------------------------------------------------------------*
     474 00000028           ||$C$L2||:    
     475                            .dwpsn  file "C:/TI_CodeComposer/StellarisWare-LM3S1968/driverlib/timer.c",line 125,column 60,
     476 00000028 9801              LDR       A1, [SP, #4]          ; [DPU_3_PIPE] |125|  ; [ORIG 16-BIT INS]
     477 0000002a 1C40              ADDS      A1, A1, #1            ; [DPU_3_PIPE] |125|  ; [ORIG 16-BIT INS]
     478 0000002c 9001              STR       A1, [SP, #4]          ; [DPU_3_PIPE] |125|  ; [ORIG 16-BIT INS]
     479                            .dwpsn  file "C:/TI_CodeComposer/StellarisWare-LM3S1968/driverlib/timer.c",line 124,column 20,
     480 0000002e 9801              LDR       A1, [SP, #4]          ; [DPU_3_PIPE] |124|  ; [ORIG 16-BIT INS]
     481 00000030 280C              CMP       A1, #12               ; [DPU_3_PIPE] |124|  ; [ORIG 16-BIT INS]
     482 00000032 D3ED              BCC       ||$C$L1||             ; [DPU_3_PIPE] |124|  ; [ORIG 16-BIT INS]
     483                            ; BRANCHCC OCCURS {||$C$L1||}    ; [] |124| 
     484                    ;* --------------------------------------------------------------------------*
     485 00000034           ||$C$L3||:    
     486                            .dwpsn  file "C:/TI_CodeComposer/StellarisWare-LM3S1968/driverlib/timer.c",line 142,column 5,i
     487 00000034 30FFF04F          MOV       A1, #-1               ; [DPU_3_PIPE] |142|  ; [KEEP 32-BIT INS]
     488                    ;* --------------------------------------------------------------------------*
     489 00000038           ||$C$L4||:    
     490                            .dwpsn  file "C:/TI_CodeComposer/StellarisWare-LM3S1968/driverlib/timer.c",line 143,column 1,i
     491 00000038 B002              ADD       SP, SP, #8            ; [DPU_3_PIPE]  ; [ORIG 16-BIT INS]
     492                            .dwcfi  cfa_offset, 0
     493                    $C$DW$51        .dwtag  DW_TAG_TI_branch
     494                            .dwattr $C$DW$51, DW_AT_low_pc(0x00)
     495                            .dwattr $C$DW$51, DW_AT_TI_return
TI ARM Assembler PC v15.12.1 Wed Apr 19 15:29:26 2017

Tools Copyright (c) 1996-2015 Texas Instruments Incorporated
Task_TimeOfDay.asm                                                   PAGE   10

     496                    
     497 0000003a 4770              BX        LR                    ; [DPU_3_PIPE]  ; [ORIG 16-BIT INS]
     498                            ; BRANCH OCCURS                  ; [] 
     499                            .dwattr $C$DW$47, DW_AT_TI_end_file("C:/TI_CodeComposer/StellarisWare-LM3S1968/driverlib/timer
     500                            .dwattr $C$DW$47, DW_AT_TI_end_line(0x8f)
     501                            .dwattr $C$DW$47, DW_AT_TI_end_column(0x01)
     502                            .dwendentry
     503                            .dwendtag $C$DW$47
     504                    
     505 0000003c                   .sect   ".text"
     506                            .clink
     507                            .thumbfunc TimerEnable
     508 0000003c                   .thumb
     509                            .global TimerEnable
     510                    
     511                    $C$DW$52        .dwtag  DW_TAG_subprogram
     512                            .dwattr $C$DW$52, DW_AT_name("TimerEnable")
     513                            .dwattr $C$DW$52, DW_AT_low_pc(TimerEnable)
     514                            .dwattr $C$DW$52, DW_AT_high_pc(0x00)
     515                            .dwattr $C$DW$52, DW_AT_TI_symbol_name("TimerEnable")
     516                            .dwattr $C$DW$52, DW_AT_external
     517                            .dwattr $C$DW$52, DW_AT_TI_begin_file("C:/TI_CodeComposer/StellarisWare-LM3S1968/driverlib/tim
     518                            .dwattr $C$DW$52, DW_AT_TI_begin_line(0xa0)
     519                            .dwattr $C$DW$52, DW_AT_TI_begin_column(0x01)
     520                            .dwattr $C$DW$52, DW_AT_decl_file("C:/TI_CodeComposer/StellarisWare-LM3S1968/driverlib/timer.c
     521                            .dwattr $C$DW$52, DW_AT_decl_line(0xa0)
     522                            .dwattr $C$DW$52, DW_AT_decl_column(0x01)
     523                            .dwattr $C$DW$52, DW_AT_TI_max_frame_size(0x08)
     524                            .dwpsn  file "C:/TI_CodeComposer/StellarisWare-LM3S1968/driverlib/timer.c",line 161,column 1,i
     525                    
     526                            .dwfde $C$DW$CIE, TimerEnable
     527                    $C$DW$53        .dwtag  DW_TAG_formal_parameter
     528                            .dwattr $C$DW$53, DW_AT_name("ulBase")
     529                            .dwattr $C$DW$53, DW_AT_TI_symbol_name("ulBase")
     530                            .dwattr $C$DW$53, DW_AT_type(*$C$DW$T$13)
     531                            .dwattr $C$DW$53, DW_AT_location[DW_OP_reg0]
     532                    
     533                    $C$DW$54        .dwtag  DW_TAG_formal_parameter
     534                            .dwattr $C$DW$54, DW_AT_name("ulTimer")
     535                            .dwattr $C$DW$54, DW_AT_TI_symbol_name("ulTimer")
     536                            .dwattr $C$DW$54, DW_AT_type(*$C$DW$T$13)
     537                            .dwattr $C$DW$54, DW_AT_location[DW_OP_reg1]
     538                    
     539                    
     540                    ;*****************************************************************************
     541                    ;* FUNCTION NAME: TimerEnable                                                *
     542                    ;*                                                                           *
     543                    ;*   Regs Modified     : A1,A2,A3,A4,SP,SR                                   *
     544                    ;*   Regs Used         : A1,A2,A3,A4,SP,LR,SR                                *
     545                    ;*   Local Frame Size  : 0 Args + 8 Auto + 0 Save = 8 byte                   *
     546                    ;*****************************************************************************
     547 0000003c           TimerEnable:
     548                    ;* --------------------------------------------------------------------------*
     549                            .dwcfi  cfa_offset, 0
     550 0000003c 0D08F1AD          SUB       SP, SP, #8            ; [DPU_3_PIPE]  ; [KEEP 32-BIT INS]
TI ARM Assembler PC v15.12.1 Wed Apr 19 15:29:26 2017

Tools Copyright (c) 1996-2015 Texas Instruments Incorporated
Task_TimeOfDay.asm                                                   PAGE   11

     551                            .dwcfi  cfa_offset, 8
     552                    $C$DW$55        .dwtag  DW_TAG_variable
     553                            .dwattr $C$DW$55, DW_AT_name("ulBase")
     554                            .dwattr $C$DW$55, DW_AT_TI_symbol_name("ulBase")
     555                            .dwattr $C$DW$55, DW_AT_type(*$C$DW$T$13)
     556                            .dwattr $C$DW$55, DW_AT_location[DW_OP_breg13 0]
     557                    
     558                    $C$DW$56        .dwtag  DW_TAG_variable
     559                            .dwattr $C$DW$56, DW_AT_name("ulTimer")
     560                            .dwattr $C$DW$56, DW_AT_TI_symbol_name("ulTimer")
     561                            .dwattr $C$DW$56, DW_AT_type(*$C$DW$T$13)
     562                            .dwattr $C$DW$56, DW_AT_location[DW_OP_breg13 4]
     563                    
     564 00000040 9101              STR       A2, [SP, #4]          ; [DPU_3_PIPE] |161|  ; [ORIG 16-BIT INS]
     565 00000042 9000              STR       A1, [SP, #0]          ; [DPU_3_PIPE] |161|  ; [ORIG 16-BIT INS]
     566                            .dwpsn  file "C:/TI_CodeComposer/StellarisWare-LM3S1968/driverlib/timer.c",line 172,column 5,i
     567 00000044 9800              LDR       A1, [SP, #0]          ; [DPU_3_PIPE] |172|  ; [ORIG 16-BIT INS]
     568 00000046 9B01              LDR       A4, [SP, #4]          ; [DPU_3_PIPE] |172|  ; [ORIG 16-BIT INS]
     569 00000048 300C              ADDS      A1, A1, #12           ; [DPU_3_PIPE] |172|  ; [ORIG 16-BIT INS]
     570 0000004a 6802              LDR       A3, [A1, #0]          ; [DPU_3_PIPE] |172|  ; [ORIG 16-BIT INS]
     571 0000004c 1101F240          MOV       A2, #257              ; [DPU_3_PIPE] |172|  ; [KEEP 32-BIT INS]
     572 00000050 4019              ANDS      A2, A2, A4            ; [DPU_3_PIPE] |172|  ; [ORIG 16-BIT INS]
     573 00000052 4311              ORRS      A2, A2, A3            ; [DPU_3_PIPE] |172|  ; [ORIG 16-BIT INS]
     574 00000054 6001              STR       A2, [A1, #0]          ; [DPU_3_PIPE] |172|  ; [ORIG 16-BIT INS]
     575                            .dwpsn  file "C:/TI_CodeComposer/StellarisWare-LM3S1968/driverlib/timer.c",line 173,column 1,i
     576 00000056 B002              ADD       SP, SP, #8            ; [DPU_3_PIPE]  ; [ORIG 16-BIT INS]
     577                            .dwcfi  cfa_offset, 0
     578                    $C$DW$57        .dwtag  DW_TAG_TI_branch
     579                            .dwattr $C$DW$57, DW_AT_low_pc(0x00)
     580                            .dwattr $C$DW$57, DW_AT_TI_return
     581                    
     582 00000058 4770              BX        LR                    ; [DPU_3_PIPE]  ; [ORIG 16-BIT INS]
     583                            ; BRANCH OCCURS                  ; [] 
     584                            .dwattr $C$DW$52, DW_AT_TI_end_file("C:/TI_CodeComposer/StellarisWare-LM3S1968/driverlib/timer
     585                            .dwattr $C$DW$52, DW_AT_TI_end_line(0xad)
     586                            .dwattr $C$DW$52, DW_AT_TI_end_column(0x01)
     587                            .dwendentry
     588                            .dwendtag $C$DW$52
     589                    
     590 0000005a                   .sect   ".text"
     591                            .clink
     592                            .thumbfunc TimerDisable
     593 0000005a                   .thumb
     594                            .global TimerDisable
     595                    
     596                    $C$DW$58        .dwtag  DW_TAG_subprogram
     597                            .dwattr $C$DW$58, DW_AT_name("TimerDisable")
     598                            .dwattr $C$DW$58, DW_AT_low_pc(TimerDisable)
     599                            .dwattr $C$DW$58, DW_AT_high_pc(0x00)
     600                            .dwattr $C$DW$58, DW_AT_TI_symbol_name("TimerDisable")
     601                            .dwattr $C$DW$58, DW_AT_external
     602                            .dwattr $C$DW$58, DW_AT_TI_begin_file("C:/TI_CodeComposer/StellarisWare-LM3S1968/driverlib/tim
     603                            .dwattr $C$DW$58, DW_AT_TI_begin_line(0xbd)
     604                            .dwattr $C$DW$58, DW_AT_TI_begin_column(0x01)
     605                            .dwattr $C$DW$58, DW_AT_decl_file("C:/TI_CodeComposer/StellarisWare-LM3S1968/driverlib/timer.c
TI ARM Assembler PC v15.12.1 Wed Apr 19 15:29:26 2017

Tools Copyright (c) 1996-2015 Texas Instruments Incorporated
Task_TimeOfDay.asm                                                   PAGE   12

     606                            .dwattr $C$DW$58, DW_AT_decl_line(0xbd)
     607                            .dwattr $C$DW$58, DW_AT_decl_column(0x01)
     608                            .dwattr $C$DW$58, DW_AT_TI_max_frame_size(0x08)
     609                            .dwpsn  file "C:/TI_CodeComposer/StellarisWare-LM3S1968/driverlib/timer.c",line 190,column 1,i
     610                    
     611                            .dwfde $C$DW$CIE, TimerDisable
     612                    $C$DW$59        .dwtag  DW_TAG_formal_parameter
     613                            .dwattr $C$DW$59, DW_AT_name("ulBase")
     614                            .dwattr $C$DW$59, DW_AT_TI_symbol_name("ulBase")
     615                            .dwattr $C$DW$59, DW_AT_type(*$C$DW$T$13)
     616                            .dwattr $C$DW$59, DW_AT_location[DW_OP_reg0]
     617                    
     618                    $C$DW$60        .dwtag  DW_TAG_formal_parameter
     619                            .dwattr $C$DW$60, DW_AT_name("ulTimer")
     620                            .dwattr $C$DW$60, DW_AT_TI_symbol_name("ulTimer")
     621                            .dwattr $C$DW$60, DW_AT_type(*$C$DW$T$13)
     622                            .dwattr $C$DW$60, DW_AT_location[DW_OP_reg1]
     623                    
     624                    
     625                    ;*****************************************************************************
     626                    ;* FUNCTION NAME: TimerDisable                                               *
     627                    ;*                                                                           *
     628                    ;*   Regs Modified     : A1,A2,A3,A4,SP,SR                                   *
     629                    ;*   Regs Used         : A1,A2,A3,A4,SP,LR,SR                                *
     630                    ;*   Local Frame Size  : 0 Args + 8 Auto + 0 Save = 8 byte                   *
     631                    ;*****************************************************************************
     632 0000005a           TimerDisable:
     633                    ;* --------------------------------------------------------------------------*
     634                            .dwcfi  cfa_offset, 0
     635 0000005a 0D08F1AD          SUB       SP, SP, #8            ; [DPU_3_PIPE]  ; [KEEP 32-BIT INS]
     636                            .dwcfi  cfa_offset, 8
     637                    $C$DW$61        .dwtag  DW_TAG_variable
     638                            .dwattr $C$DW$61, DW_AT_name("ulBase")
     639                            .dwattr $C$DW$61, DW_AT_TI_symbol_name("ulBase")
     640                            .dwattr $C$DW$61, DW_AT_type(*$C$DW$T$13)
     641                            .dwattr $C$DW$61, DW_AT_location[DW_OP_breg13 0]
     642                    
     643                    $C$DW$62        .dwtag  DW_TAG_variable
     644                            .dwattr $C$DW$62, DW_AT_name("ulTimer")
     645                            .dwattr $C$DW$62, DW_AT_TI_symbol_name("ulTimer")
     646                            .dwattr $C$DW$62, DW_AT_type(*$C$DW$T$13)
     647                            .dwattr $C$DW$62, DW_AT_location[DW_OP_breg13 4]
     648                    
     649 0000005e 9101              STR       A2, [SP, #4]          ; [DPU_3_PIPE] |190|  ; [ORIG 16-BIT INS]
     650 00000060 9000              STR       A1, [SP, #0]          ; [DPU_3_PIPE] |190|  ; [ORIG 16-BIT INS]
     651                            .dwpsn  file "C:/TI_CodeComposer/StellarisWare-LM3S1968/driverlib/timer.c",line 201,column 5,i
     652 00000062 9800              LDR       A1, [SP, #0]          ; [DPU_3_PIPE] |201|  ; [ORIG 16-BIT INS]
     653 00000064 9B01              LDR       A4, [SP, #4]          ; [DPU_3_PIPE] |201|  ; [ORIG 16-BIT INS]
     654 00000066 300C              ADDS      A1, A1, #12           ; [DPU_3_PIPE] |201|  ; [ORIG 16-BIT INS]
     655 00000068 6802              LDR       A3, [A1, #0]          ; [DPU_3_PIPE] |201|  ; [ORIG 16-BIT INS]
     656 0000006a 1101F240          MOV       A2, #257              ; [DPU_3_PIPE] |201|  ; [KEEP 32-BIT INS]
     657 0000006e 4019              ANDS      A2, A2, A4            ; [DPU_3_PIPE] |201|  ; [ORIG 16-BIT INS]
     658 00000070 438A              BICS      A3, A3, A2            ; [DPU_3_PIPE] |201|  ; [ORIG 16-BIT INS]
     659 00000072 6002              STR       A3, [A1, #0]          ; [DPU_3_PIPE] |201|  ; [ORIG 16-BIT INS]
     660                            .dwpsn  file "C:/TI_CodeComposer/StellarisWare-LM3S1968/driverlib/timer.c",line 203,column 1,i
TI ARM Assembler PC v15.12.1 Wed Apr 19 15:29:26 2017

Tools Copyright (c) 1996-2015 Texas Instruments Incorporated
Task_TimeOfDay.asm                                                   PAGE   13

     661 00000074 B002              ADD       SP, SP, #8            ; [DPU_3_PIPE]  ; [ORIG 16-BIT INS]
     662                            .dwcfi  cfa_offset, 0
     663                    $C$DW$63        .dwtag  DW_TAG_TI_branch
     664                            .dwattr $C$DW$63, DW_AT_low_pc(0x00)
     665                            .dwattr $C$DW$63, DW_AT_TI_return
     666                    
     667 00000076 4770              BX        LR                    ; [DPU_3_PIPE]  ; [ORIG 16-BIT INS]
     668                            ; BRANCH OCCURS                  ; [] 
     669                            .dwattr $C$DW$58, DW_AT_TI_end_file("C:/TI_CodeComposer/StellarisWare-LM3S1968/driverlib/timer
     670                            .dwattr $C$DW$58, DW_AT_TI_end_line(0xcb)
     671                            .dwattr $C$DW$58, DW_AT_TI_end_column(0x01)
     672                            .dwendentry
     673                            .dwendtag $C$DW$58
     674                    
     675 00000078                   .sect   ".text"
     676                            .clink
     677                            .thumbfunc TimerConfigure
     678 00000078                   .thumb
     679                            .global TimerConfigure
     680                    
     681                    $C$DW$64        .dwtag  DW_TAG_subprogram
     682                            .dwattr $C$DW$64, DW_AT_name("TimerConfigure")
     683                            .dwattr $C$DW$64, DW_AT_low_pc(TimerConfigure)
     684                            .dwattr $C$DW$64, DW_AT_high_pc(0x00)
     685                            .dwattr $C$DW$64, DW_AT_TI_symbol_name("TimerConfigure")
     686                            .dwattr $C$DW$64, DW_AT_external
     687                            .dwattr $C$DW$64, DW_AT_TI_begin_file("C:/TI_CodeComposer/StellarisWare-LM3S1968/driverlib/tim
     688                            .dwattr $C$DW$64, DW_AT_TI_begin_line(0x102)
     689                            .dwattr $C$DW$64, DW_AT_TI_begin_column(0x01)
     690                            .dwattr $C$DW$64, DW_AT_decl_file("C:/TI_CodeComposer/StellarisWare-LM3S1968/driverlib/timer.c
     691                            .dwattr $C$DW$64, DW_AT_decl_line(0x102)
     692                            .dwattr $C$DW$64, DW_AT_decl_column(0x01)
     693                            .dwattr $C$DW$64, DW_AT_TI_max_frame_size(0x08)
     694                            .dwpsn  file "C:/TI_CodeComposer/StellarisWare-LM3S1968/driverlib/timer.c",line 259,column 1,i
     695                    
     696                            .dwfde $C$DW$CIE, TimerConfigure
     697                    $C$DW$65        .dwtag  DW_TAG_formal_parameter
     698                            .dwattr $C$DW$65, DW_AT_name("ulBase")
     699                            .dwattr $C$DW$65, DW_AT_TI_symbol_name("ulBase")
     700                            .dwattr $C$DW$65, DW_AT_type(*$C$DW$T$13)
     701                            .dwattr $C$DW$65, DW_AT_location[DW_OP_reg0]
     702                    
     703                    $C$DW$66        .dwtag  DW_TAG_formal_parameter
     704                            .dwattr $C$DW$66, DW_AT_name("ulConfig")
     705                            .dwattr $C$DW$66, DW_AT_TI_symbol_name("ulConfig")
     706                            .dwattr $C$DW$66, DW_AT_type(*$C$DW$T$13)
     707                            .dwattr $C$DW$66, DW_AT_location[DW_OP_reg1]
     708                    
     709                    
     710                    ;*****************************************************************************
     711                    ;* FUNCTION NAME: TimerConfigure                                             *
     712                    ;*                                                                           *
     713                    ;*   Regs Modified     : A1,A2,A3,SP,SR                                      *
     714                    ;*   Regs Used         : A1,A2,A3,SP,LR,SR                                   *
     715                    ;*   Local Frame Size  : 0 Args + 8 Auto + 0 Save = 8 byte                   *
TI ARM Assembler PC v15.12.1 Wed Apr 19 15:29:26 2017

Tools Copyright (c) 1996-2015 Texas Instruments Incorporated
Task_TimeOfDay.asm                                                   PAGE   14

     716                    ;*****************************************************************************
     717 00000078           TimerConfigure:
     718                    ;* --------------------------------------------------------------------------*
     719                            .dwcfi  cfa_offset, 0
     720 00000078 0D08F1AD          SUB       SP, SP, #8            ; [DPU_3_PIPE]  ; [KEEP 32-BIT INS]
     721                            .dwcfi  cfa_offset, 8
     722                    $C$DW$67        .dwtag  DW_TAG_variable
     723                            .dwattr $C$DW$67, DW_AT_name("ulBase")
     724                            .dwattr $C$DW$67, DW_AT_TI_symbol_name("ulBase")
     725                            .dwattr $C$DW$67, DW_AT_type(*$C$DW$T$13)
     726                            .dwattr $C$DW$67, DW_AT_location[DW_OP_breg13 0]
     727                    
     728                    $C$DW$68        .dwtag  DW_TAG_variable
     729                            .dwattr $C$DW$68, DW_AT_name("ulConfig")
     730                            .dwattr $C$DW$68, DW_AT_TI_symbol_name("ulConfig")
     731                            .dwattr $C$DW$68, DW_AT_type(*$C$DW$T$13)
     732                            .dwattr $C$DW$68, DW_AT_location[DW_OP_breg13 4]
     733                    
     734 0000007c 9101              STR       A2, [SP, #4]          ; [DPU_3_PIPE] |259|  ; [ORIG 16-BIT INS]
     735 0000007e 9000              STR       A1, [SP, #0]          ; [DPU_3_PIPE] |259|  ; [ORIG 16-BIT INS]
     736                            .dwpsn  file "C:/TI_CodeComposer/StellarisWare-LM3S1968/driverlib/timer.c",line 291,column 5,i
     737 00000080 49A1              LDR       A2, $C$CON3           ; [DPU_3_PIPE] |291|  ; [ORIG 16-BIT INS]
     738 00000082 9800              LDR       A1, [SP, #0]          ; [DPU_3_PIPE] |291|  ; [ORIG 16-BIT INS]
     739 00000084 300C              ADDS      A1, A1, #12           ; [DPU_3_PIPE] |291|  ; [ORIG 16-BIT INS]
     740 00000086 6802              LDR       A3, [A1, #0]          ; [DPU_3_PIPE] |291|  ; [ORIG 16-BIT INS]
     741 00000088 4011              ANDS      A2, A2, A3            ; [DPU_3_PIPE] |291|  ; [ORIG 16-BIT INS]
     742 0000008a 6001              STR       A2, [A1, #0]          ; [DPU_3_PIPE] |291|  ; [ORIG 16-BIT INS]
     743                            .dwpsn  file "C:/TI_CodeComposer/StellarisWare-LM3S1968/driverlib/timer.c",line 296,column 5,i
     744 0000008c 9801              LDR       A1, [SP, #4]          ; [DPU_3_PIPE] |296|  ; [ORIG 16-BIT INS]
     745 0000008e 9900              LDR       A2, [SP, #0]          ; [DPU_3_PIPE] |296|  ; [ORIG 16-BIT INS]
     746 00000090 0E00              LSRS      A1, A1, #24           ; [DPU_3_PIPE] |296|  ; [ORIG 16-BIT INS]
     747 00000092 6008              STR       A1, [A2, #0]          ; [DPU_3_PIPE] |296|  ; [ORIG 16-BIT INS]
     748                            .dwpsn  file "C:/TI_CodeComposer/StellarisWare-LM3S1968/driverlib/timer.c",line 302,column 5,i
     749 00000094 9801              LDR       A1, [SP, #4]          ; [DPU_3_PIPE] |302|  ; [ORIG 16-BIT INS]
     750 00000096 9900              LDR       A2, [SP, #0]          ; [DPU_3_PIPE] |302|  ; [ORIG 16-BIT INS]
     751 00000098 00FFF000          AND       A1, A1, #255          ; [DPU_3_PIPE] |302|  ; [KEEP 32-BIT INS]
     752 0000009c 7000F440          ORR       A1, A1, #512          ; [DPU_3_PIPE] |302|  ; [KEEP 32-BIT INS]
     753 000000a0 6048              STR       A1, [A2, #4]          ; [DPU_3_PIPE] |302|  ; [ORIG 16-BIT INS]
     754                            .dwpsn  file "C:/TI_CodeComposer/StellarisWare-LM3S1968/driverlib/timer.c",line 303,column 5,i
     755 000000a2 9801              LDR       A1, [SP, #4]          ; [DPU_3_PIPE] |303|  ; [ORIG 16-BIT INS]
     756 000000a4 9900              LDR       A2, [SP, #0]          ; [DPU_3_PIPE] |303|  ; [ORIG 16-BIT INS]
     757 000000a6 2007F3C0          UBFX      A1, A1, #8, #8        ; [DPU_3_PIPE] |303|  ; [KEEP 32-BIT INS]
     758 000000aa 7000F440          ORR       A1, A1, #512          ; [DPU_3_PIPE] |303|  ; [KEEP 32-BIT INS]
     759 000000ae 6088              STR       A1, [A2, #8]          ; [DPU_3_PIPE] |303|  ; [ORIG 16-BIT INS]
     760                            .dwpsn  file "C:/TI_CodeComposer/StellarisWare-LM3S1968/driverlib/timer.c",line 305,column 1,i
     761 000000b0 B002              ADD       SP, SP, #8            ; [DPU_3_PIPE]  ; [ORIG 16-BIT INS]
     762                            .dwcfi  cfa_offset, 0
     763                    $C$DW$69        .dwtag  DW_TAG_TI_branch
     764                            .dwattr $C$DW$69, DW_AT_low_pc(0x00)
     765                            .dwattr $C$DW$69, DW_AT_TI_return
     766                    
     767 000000b2 4770              BX        LR                    ; [DPU_3_PIPE]  ; [ORIG 16-BIT INS]
     768                            ; BRANCH OCCURS                  ; [] 
     769                            .dwattr $C$DW$64, DW_AT_TI_end_file("C:/TI_CodeComposer/StellarisWare-LM3S1968/driverlib/timer
     770                            .dwattr $C$DW$64, DW_AT_TI_end_line(0x131)
TI ARM Assembler PC v15.12.1 Wed Apr 19 15:29:26 2017

Tools Copyright (c) 1996-2015 Texas Instruments Incorporated
Task_TimeOfDay.asm                                                   PAGE   15

     771                            .dwattr $C$DW$64, DW_AT_TI_end_column(0x01)
     772                            .dwendentry
     773                            .dwendtag $C$DW$64
     774                    
     775 000000b4                   .sect   ".text"
     776                            .clink
     777                            .thumbfunc TimerControlLevel
     778 000000b4                   .thumb
     779                            .global TimerControlLevel
     780                    
     781                    $C$DW$70        .dwtag  DW_TAG_subprogram
     782                            .dwattr $C$DW$70, DW_AT_name("TimerControlLevel")
     783                            .dwattr $C$DW$70, DW_AT_low_pc(TimerControlLevel)
     784                            .dwattr $C$DW$70, DW_AT_high_pc(0x00)
     785                            .dwattr $C$DW$70, DW_AT_TI_symbol_name("TimerControlLevel")
     786                            .dwattr $C$DW$70, DW_AT_external
     787                            .dwattr $C$DW$70, DW_AT_TI_begin_file("C:/TI_CodeComposer/StellarisWare-LM3S1968/driverlib/tim
     788                            .dwattr $C$DW$70, DW_AT_TI_begin_line(0x144)
     789                            .dwattr $C$DW$70, DW_AT_TI_begin_column(0x01)
     790                            .dwattr $C$DW$70, DW_AT_decl_file("C:/TI_CodeComposer/StellarisWare-LM3S1968/driverlib/timer.c
     791                            .dwattr $C$DW$70, DW_AT_decl_line(0x144)
     792                            .dwattr $C$DW$70, DW_AT_decl_column(0x01)
     793                            .dwattr $C$DW$70, DW_AT_TI_max_frame_size(0x10)
     794                            .dwpsn  file "C:/TI_CodeComposer/StellarisWare-LM3S1968/driverlib/timer.c",line 326,column 1,i
     795                    
     796                            .dwfde $C$DW$CIE, TimerControlLevel
     797                    $C$DW$71        .dwtag  DW_TAG_formal_parameter
     798                            .dwattr $C$DW$71, DW_AT_name("ulBase")
     799                            .dwattr $C$DW$71, DW_AT_TI_symbol_name("ulBase")
     800                            .dwattr $C$DW$71, DW_AT_type(*$C$DW$T$13)
     801                            .dwattr $C$DW$71, DW_AT_location[DW_OP_reg0]
     802                    
     803                    $C$DW$72        .dwtag  DW_TAG_formal_parameter
     804                            .dwattr $C$DW$72, DW_AT_name("ulTimer")
     805                            .dwattr $C$DW$72, DW_AT_TI_symbol_name("ulTimer")
     806                            .dwattr $C$DW$72, DW_AT_type(*$C$DW$T$13)
     807                            .dwattr $C$DW$72, DW_AT_location[DW_OP_reg1]
     808                    
     809                    $C$DW$73        .dwtag  DW_TAG_formal_parameter
     810                            .dwattr $C$DW$73, DW_AT_name("bInvert")
     811                            .dwattr $C$DW$73, DW_AT_TI_symbol_name("bInvert")
     812                            .dwattr $C$DW$73, DW_AT_type(*$C$DW$T$80)
     813                            .dwattr $C$DW$73, DW_AT_location[DW_OP_reg2]
     814                    
     815                    
     816                    ;*****************************************************************************
     817                    ;* FUNCTION NAME: TimerControlLevel                                          *
     818                    ;*                                                                           *
     819                    ;*   Regs Modified     : A1,A2,SP,SR                                         *
     820                    ;*   Regs Used         : A1,A2,A3,SP,LR,SR                                   *
     821                    ;*   Local Frame Size  : 0 Args + 12 Auto + 0 Save = 12 byte                 *
     822                    ;*****************************************************************************
     823 000000b4           TimerControlLevel:
     824                    ;* --------------------------------------------------------------------------*
     825                            .dwcfi  cfa_offset, 0
TI ARM Assembler PC v15.12.1 Wed Apr 19 15:29:26 2017

Tools Copyright (c) 1996-2015 Texas Instruments Incorporated
Task_TimeOfDay.asm                                                   PAGE   16

     826 000000b4 0D10F1AD          SUB       SP, SP, #16           ; [DPU_3_PIPE]  ; [KEEP 32-BIT INS]
     827                            .dwcfi  cfa_offset, 16
     828                    $C$DW$74        .dwtag  DW_TAG_variable
     829                            .dwattr $C$DW$74, DW_AT_name("ulBase")
     830                            .dwattr $C$DW$74, DW_AT_TI_symbol_name("ulBase")
     831                            .dwattr $C$DW$74, DW_AT_type(*$C$DW$T$13)
     832                            .dwattr $C$DW$74, DW_AT_location[DW_OP_breg13 0]
     833                    
     834                    $C$DW$75        .dwtag  DW_TAG_variable
     835                            .dwattr $C$DW$75, DW_AT_name("ulTimer")
     836                            .dwattr $C$DW$75, DW_AT_TI_symbol_name("ulTimer")
     837                            .dwattr $C$DW$75, DW_AT_type(*$C$DW$T$13)
     838                            .dwattr $C$DW$75, DW_AT_location[DW_OP_breg13 4]
     839                    
     840                    $C$DW$76        .dwtag  DW_TAG_variable
     841                            .dwattr $C$DW$76, DW_AT_name("bInvert")
     842                            .dwattr $C$DW$76, DW_AT_TI_symbol_name("bInvert")
     843                            .dwattr $C$DW$76, DW_AT_type(*$C$DW$T$80)
     844                            .dwattr $C$DW$76, DW_AT_location[DW_OP_breg13 8]
     845                    
     846 000000b8 2008F88D          STRB      A3, [SP, #8]          ; [DPU_3_PIPE] |326|  ; [KEEP 32-BIT INS]
     847 000000bc 9101              STR       A2, [SP, #4]          ; [DPU_3_PIPE] |326|  ; [ORIG 16-BIT INS]
     848 000000be 9000              STR       A1, [SP, #0]          ; [DPU_3_PIPE] |326|  ; [ORIG 16-BIT INS]
     849                            .dwpsn  file "C:/TI_CodeComposer/StellarisWare-LM3S1968/driverlib/timer.c",line 337,column 5,i
     850 000000c0 9901              LDR       A2, [SP, #4]          ; [DPU_3_PIPE] |337|  ; [ORIG 16-BIT INS]
     851 000000c2 0040F244          MOV       A1, #16448            ; [DPU_3_PIPE] |337|  ; [KEEP 32-BIT INS]
     852 000000c6 4008              ANDS      A1, A1, A2            ; [DPU_3_PIPE] |337|  ; [ORIG 16-BIT INS]
     853 000000c8 9001              STR       A1, [SP, #4]          ; [DPU_3_PIPE] |337|  ; [ORIG 16-BIT INS]
     854                            .dwpsn  file "C:/TI_CodeComposer/StellarisWare-LM3S1968/driverlib/timer.c",line 338,column 5,i
     855 000000ca 0008F89D          LDRB      A1, [SP, #8]          ; [DPU_3_PIPE] |338|  ; [KEEP 32-BIT INS]
     856 000000ce B120              CBZ       A1, ||$C$L5||         ; []  ; [ORIG 16-BIT INS]
     857                            ; BRANCHCC OCCURS {||$C$L5||}    ; [] |338| 
     858                    ;* --------------------------------------------------------------------------*
     859 000000d0 9900              LDR       A2, [SP, #0]          ; [DPU_3_PIPE] |338|  ; [ORIG 16-BIT INS]
     860 000000d2 9801              LDR       A1, [SP, #4]          ; [DPU_3_PIPE] |338|  ; [ORIG 16-BIT INS]
     861 000000d4 68C9              LDR       A2, [A2, #12]         ; [DPU_3_PIPE] |338|  ; [ORIG 16-BIT INS]
     862 000000d6 4308              ORRS      A1, A1, A2            ; [DPU_3_PIPE] |338|  ; [ORIG 16-BIT INS]
     863 000000d8 E003              B         ||$C$L6||             ; [DPU_3_PIPE] |338|  ; [ORIG 16-BIT INS]
     864                            ; BRANCH OCCURS {||$C$L6||}      ; [] |338| 
     865                    ;* --------------------------------------------------------------------------*
     866 000000da           ||$C$L5||:    
     867 000000da 9800              LDR       A1, [SP, #0]          ; [DPU_3_PIPE] |338|  ; [ORIG 16-BIT INS]
     868 000000dc 9901              LDR       A2, [SP, #4]          ; [DPU_3_PIPE] |338|  ; [ORIG 16-BIT INS]
     869 000000de 68C0              LDR       A1, [A1, #12]         ; [DPU_3_PIPE] |338|  ; [ORIG 16-BIT INS]
     870 000000e0 4388              BICS      A1, A1, A2            ; [DPU_3_PIPE] |338|  ; [ORIG 16-BIT INS]
     871                    ;* --------------------------------------------------------------------------*
     872 000000e2           ||$C$L6||:    
     873 000000e2 9900              LDR       A2, [SP, #0]          ; [DPU_3_PIPE] |338|  ; [ORIG 16-BIT INS]
     874 000000e4 60C8              STR       A1, [A2, #12]         ; [DPU_3_PIPE] |338|  ; [ORIG 16-BIT INS]
     875                            .dwpsn  file "C:/TI_CodeComposer/StellarisWare-LM3S1968/driverlib/timer.c",line 341,column 1,i
     876 000000e6 B004              ADD       SP, SP, #16           ; [DPU_3_PIPE]  ; [ORIG 16-BIT INS]
     877                            .dwcfi  cfa_offset, 0
     878                    $C$DW$77        .dwtag  DW_TAG_TI_branch
     879                            .dwattr $C$DW$77, DW_AT_low_pc(0x00)
     880                            .dwattr $C$DW$77, DW_AT_TI_return
TI ARM Assembler PC v15.12.1 Wed Apr 19 15:29:26 2017

Tools Copyright (c) 1996-2015 Texas Instruments Incorporated
Task_TimeOfDay.asm                                                   PAGE   17

     881                    
     882 000000e8 4770              BX        LR                    ; [DPU_3_PIPE]  ; [ORIG 16-BIT INS]
     883                            ; BRANCH OCCURS                  ; [] 
     884                            .dwattr $C$DW$70, DW_AT_TI_end_file("C:/TI_CodeComposer/StellarisWare-LM3S1968/driverlib/timer
     885                            .dwattr $C$DW$70, DW_AT_TI_end_line(0x155)
     886                            .dwattr $C$DW$70, DW_AT_TI_end_column(0x01)
     887                            .dwendentry
     888                            .dwendtag $C$DW$70
     889                    
     890 000000ea                   .sect   ".text"
     891                            .clink
     892                            .thumbfunc TimerControlTrigger
     893 000000ea                   .thumb
     894                            .global TimerControlTrigger
     895                    
     896                    $C$DW$78        .dwtag  DW_TAG_subprogram
     897                            .dwattr $C$DW$78, DW_AT_name("TimerControlTrigger")
     898                            .dwattr $C$DW$78, DW_AT_low_pc(TimerControlTrigger)
     899                            .dwattr $C$DW$78, DW_AT_high_pc(0x00)
     900                            .dwattr $C$DW$78, DW_AT_TI_symbol_name("TimerControlTrigger")
     901                            .dwattr $C$DW$78, DW_AT_external
     902                            .dwattr $C$DW$78, DW_AT_TI_begin_file("C:/TI_CodeComposer/StellarisWare-LM3S1968/driverlib/tim
     903                            .dwattr $C$DW$78, DW_AT_TI_begin_line(0x168)
     904                            .dwattr $C$DW$78, DW_AT_TI_begin_column(0x01)
     905                            .dwattr $C$DW$78, DW_AT_decl_file("C:/TI_CodeComposer/StellarisWare-LM3S1968/driverlib/timer.c
     906                            .dwattr $C$DW$78, DW_AT_decl_line(0x168)
     907                            .dwattr $C$DW$78, DW_AT_decl_column(0x01)
     908                            .dwattr $C$DW$78, DW_AT_TI_max_frame_size(0x10)
     909                            .dwpsn  file "C:/TI_CodeComposer/StellarisWare-LM3S1968/driverlib/timer.c",line 362,column 1,i
     910                    
     911                            .dwfde $C$DW$CIE, TimerControlTrigger
     912                    $C$DW$79        .dwtag  DW_TAG_formal_parameter
     913                            .dwattr $C$DW$79, DW_AT_name("ulBase")
     914                            .dwattr $C$DW$79, DW_AT_TI_symbol_name("ulBase")
     915                            .dwattr $C$DW$79, DW_AT_type(*$C$DW$T$13)
     916                            .dwattr $C$DW$79, DW_AT_location[DW_OP_reg0]
     917                    
     918                    $C$DW$80        .dwtag  DW_TAG_formal_parameter
     919                            .dwattr $C$DW$80, DW_AT_name("ulTimer")
     920                            .dwattr $C$DW$80, DW_AT_TI_symbol_name("ulTimer")
     921                            .dwattr $C$DW$80, DW_AT_type(*$C$DW$T$13)
     922                            .dwattr $C$DW$80, DW_AT_location[DW_OP_reg1]
     923                    
     924                    $C$DW$81        .dwtag  DW_TAG_formal_parameter
     925                            .dwattr $C$DW$81, DW_AT_name("bEnable")
     926                            .dwattr $C$DW$81, DW_AT_TI_symbol_name("bEnable")
     927                            .dwattr $C$DW$81, DW_AT_type(*$C$DW$T$80)
     928                            .dwattr $C$DW$81, DW_AT_location[DW_OP_reg2]
     929                    
     930                    
     931                    ;*****************************************************************************
     932                    ;* FUNCTION NAME: TimerControlTrigger                                        *
     933                    ;*                                                                           *
     934                    ;*   Regs Modified     : A1,A2,SP,SR                                         *
     935                    ;*   Regs Used         : A1,A2,A3,SP,LR,SR                                   *
TI ARM Assembler PC v15.12.1 Wed Apr 19 15:29:26 2017

Tools Copyright (c) 1996-2015 Texas Instruments Incorporated
Task_TimeOfDay.asm                                                   PAGE   18

     936                    ;*   Local Frame Size  : 0 Args + 12 Auto + 0 Save = 12 byte                 *
     937                    ;*****************************************************************************
     938 000000ea           TimerControlTrigger:
     939                    ;* --------------------------------------------------------------------------*
     940                            .dwcfi  cfa_offset, 0
     941 000000ea 0D10F1AD          SUB       SP, SP, #16           ; [DPU_3_PIPE]  ; [KEEP 32-BIT INS]
     942                            .dwcfi  cfa_offset, 16
     943                    $C$DW$82        .dwtag  DW_TAG_variable
     944                            .dwattr $C$DW$82, DW_AT_name("ulBase")
     945                            .dwattr $C$DW$82, DW_AT_TI_symbol_name("ulBase")
     946                            .dwattr $C$DW$82, DW_AT_type(*$C$DW$T$13)
     947                            .dwattr $C$DW$82, DW_AT_location[DW_OP_breg13 0]
     948                    
     949                    $C$DW$83        .dwtag  DW_TAG_variable
     950                            .dwattr $C$DW$83, DW_AT_name("ulTimer")
     951                            .dwattr $C$DW$83, DW_AT_TI_symbol_name("ulTimer")
     952                            .dwattr $C$DW$83, DW_AT_type(*$C$DW$T$13)
     953                            .dwattr $C$DW$83, DW_AT_location[DW_OP_breg13 4]
     954                    
     955                    $C$DW$84        .dwtag  DW_TAG_variable
     956                            .dwattr $C$DW$84, DW_AT_name("bEnable")
     957                            .dwattr $C$DW$84, DW_AT_TI_symbol_name("bEnable")
     958                            .dwattr $C$DW$84, DW_AT_type(*$C$DW$T$80)
     959                            .dwattr $C$DW$84, DW_AT_location[DW_OP_breg13 8]
     960                    
     961 000000ee 2008F88D          STRB      A3, [SP, #8]          ; [DPU_3_PIPE] |362|  ; [KEEP 32-BIT INS]
     962 000000f2 9101              STR       A2, [SP, #4]          ; [DPU_3_PIPE] |362|  ; [ORIG 16-BIT INS]
     963 000000f4 9000              STR       A1, [SP, #0]          ; [DPU_3_PIPE] |362|  ; [ORIG 16-BIT INS]
     964                            .dwpsn  file "C:/TI_CodeComposer/StellarisWare-LM3S1968/driverlib/timer.c",line 374,column 5,i
     965 000000f6 9901              LDR       A2, [SP, #4]          ; [DPU_3_PIPE] |374|  ; [ORIG 16-BIT INS]
     966 000000f8 0020F242          MOV       A1, #8224             ; [DPU_3_PIPE] |374|  ; [KEEP 32-BIT INS]
     967 000000fc 4008              ANDS      A1, A1, A2            ; [DPU_3_PIPE] |374|  ; [ORIG 16-BIT INS]
     968 000000fe 9001              STR       A1, [SP, #4]          ; [DPU_3_PIPE] |374|  ; [ORIG 16-BIT INS]
     969                            .dwpsn  file "C:/TI_CodeComposer/StellarisWare-LM3S1968/driverlib/timer.c",line 375,column 5,i
     970 00000100 0008F89D          LDRB      A1, [SP, #8]          ; [DPU_3_PIPE] |375|  ; [KEEP 32-BIT INS]
     971 00000104 B120              CBZ       A1, ||$C$L7||         ; []  ; [ORIG 16-BIT INS]
     972                            ; BRANCHCC OCCURS {||$C$L7||}    ; [] |375| 
     973                    ;* --------------------------------------------------------------------------*
     974 00000106 9900              LDR       A2, [SP, #0]          ; [DPU_3_PIPE] |375|  ; [ORIG 16-BIT INS]
     975 00000108 9801              LDR       A1, [SP, #4]          ; [DPU_3_PIPE] |375|  ; [ORIG 16-BIT INS]
     976 0000010a 68C9              LDR       A2, [A2, #12]         ; [DPU_3_PIPE] |375|  ; [ORIG 16-BIT INS]
     977 0000010c 4308              ORRS      A1, A1, A2            ; [DPU_3_PIPE] |375|  ; [ORIG 16-BIT INS]
     978 0000010e E003              B         ||$C$L8||             ; [DPU_3_PIPE] |375|  ; [ORIG 16-BIT INS]
     979                            ; BRANCH OCCURS {||$C$L8||}      ; [] |375| 
     980                    ;* --------------------------------------------------------------------------*
     981 00000110           ||$C$L7||:    
     982 00000110 9800              LDR       A1, [SP, #0]          ; [DPU_3_PIPE] |375|  ; [ORIG 16-BIT INS]
     983 00000112 9901              LDR       A2, [SP, #4]          ; [DPU_3_PIPE] |375|  ; [ORIG 16-BIT INS]
     984 00000114 68C0              LDR       A1, [A1, #12]         ; [DPU_3_PIPE] |375|  ; [ORIG 16-BIT INS]
     985 00000116 4388              BICS      A1, A1, A2            ; [DPU_3_PIPE] |375|  ; [ORIG 16-BIT INS]
     986                    ;* --------------------------------------------------------------------------*
     987 00000118           ||$C$L8||:    
     988 00000118 9900              LDR       A2, [SP, #0]          ; [DPU_3_PIPE] |375|  ; [ORIG 16-BIT INS]
     989 0000011a 60C8              STR       A1, [A2, #12]         ; [DPU_3_PIPE] |375|  ; [ORIG 16-BIT INS]
     990                            .dwpsn  file "C:/TI_CodeComposer/StellarisWare-LM3S1968/driverlib/timer.c",line 378,column 1,i
TI ARM Assembler PC v15.12.1 Wed Apr 19 15:29:26 2017

Tools Copyright (c) 1996-2015 Texas Instruments Incorporated
Task_TimeOfDay.asm                                                   PAGE   19

     991 0000011c B004              ADD       SP, SP, #16           ; [DPU_3_PIPE]  ; [ORIG 16-BIT INS]
     992                            .dwcfi  cfa_offset, 0
     993                    $C$DW$85        .dwtag  DW_TAG_TI_branch
     994                            .dwattr $C$DW$85, DW_AT_low_pc(0x00)
     995                            .dwattr $C$DW$85, DW_AT_TI_return
     996                    
     997 0000011e 4770              BX        LR                    ; [DPU_3_PIPE]  ; [ORIG 16-BIT INS]
     998                            ; BRANCH OCCURS                  ; [] 
     999                            .dwattr $C$DW$78, DW_AT_TI_end_file("C:/TI_CodeComposer/StellarisWare-LM3S1968/driverlib/timer
    1000                            .dwattr $C$DW$78, DW_AT_TI_end_line(0x17a)
    1001                            .dwattr $C$DW$78, DW_AT_TI_end_column(0x01)
    1002                            .dwendentry
    1003                            .dwendtag $C$DW$78
    1004                    
    1005 00000120                   .sect   ".text"
    1006                            .clink
    1007                            .thumbfunc TimerControlEvent
    1008 00000120                   .thumb
    1009                            .global TimerControlEvent
    1010                    
    1011                    $C$DW$86        .dwtag  DW_TAG_subprogram
    1012                            .dwattr $C$DW$86, DW_AT_name("TimerControlEvent")
    1013                            .dwattr $C$DW$86, DW_AT_low_pc(TimerControlEvent)
    1014                            .dwattr $C$DW$86, DW_AT_high_pc(0x00)
    1015                            .dwattr $C$DW$86, DW_AT_TI_symbol_name("TimerControlEvent")
    1016                            .dwattr $C$DW$86, DW_AT_external
    1017                            .dwattr $C$DW$86, DW_AT_TI_begin_file("C:/TI_CodeComposer/StellarisWare-LM3S1968/driverlib/tim
    1018                            .dwattr $C$DW$86, DW_AT_TI_begin_line(0x18e)
    1019                            .dwattr $C$DW$86, DW_AT_TI_begin_column(0x01)
    1020                            .dwattr $C$DW$86, DW_AT_decl_file("C:/TI_CodeComposer/StellarisWare-LM3S1968/driverlib/timer.c
    1021                            .dwattr $C$DW$86, DW_AT_decl_line(0x18e)
    1022                            .dwattr $C$DW$86, DW_AT_decl_column(0x01)
    1023                            .dwattr $C$DW$86, DW_AT_TI_max_frame_size(0x18)
    1024                            .dwpsn  file "C:/TI_CodeComposer/StellarisWare-LM3S1968/driverlib/timer.c",line 400,column 1,i
    1025                    
    1026                            .dwfde $C$DW$CIE, TimerControlEvent
    1027                    $C$DW$87        .dwtag  DW_TAG_formal_parameter
    1028                            .dwattr $C$DW$87, DW_AT_name("ulBase")
    1029                            .dwattr $C$DW$87, DW_AT_TI_symbol_name("ulBase")
    1030                            .dwattr $C$DW$87, DW_AT_type(*$C$DW$T$13)
    1031                            .dwattr $C$DW$87, DW_AT_location[DW_OP_reg0]
    1032                    
    1033                    $C$DW$88        .dwtag  DW_TAG_formal_parameter
    1034                            .dwattr $C$DW$88, DW_AT_name("ulTimer")
    1035                            .dwattr $C$DW$88, DW_AT_TI_symbol_name("ulTimer")
    1036                            .dwattr $C$DW$88, DW_AT_type(*$C$DW$T$13)
    1037                            .dwattr $C$DW$88, DW_AT_location[DW_OP_reg1]
    1038                    
    1039                    $C$DW$89        .dwtag  DW_TAG_formal_parameter
    1040                            .dwattr $C$DW$89, DW_AT_name("ulEvent")
    1041                            .dwattr $C$DW$89, DW_AT_TI_symbol_name("ulEvent")
    1042                            .dwattr $C$DW$89, DW_AT_type(*$C$DW$T$13)
    1043                            .dwattr $C$DW$89, DW_AT_location[DW_OP_reg2]
    1044                    
    1045                    
TI ARM Assembler PC v15.12.1 Wed Apr 19 15:29:26 2017

Tools Copyright (c) 1996-2015 Texas Instruments Incorporated
Task_TimeOfDay.asm                                                   PAGE   20

    1046                    ;*****************************************************************************
    1047                    ;* FUNCTION NAME: TimerControlEvent                                          *
    1048                    ;*                                                                           *
    1049                    ;*   Regs Modified     : A1,A2,A3,A4,V1,SP,SR                                *
    1050                    ;*   Regs Used         : A1,A2,A3,A4,V1,SP,LR,SR                             *
    1051                    ;*   Local Frame Size  : 0 Args + 12 Auto + 8 Save = 20 byte                 *
    1052                    ;*****************************************************************************
    1053 00000120           TimerControlEvent:
    1054                    ;* --------------------------------------------------------------------------*
    1055                            .dwcfi  cfa_offset, 0
    1056 00000120 B51F              PUSH      {A1, A2, A3, A4, V1, LR} ; [DPU_3_PIPE]  ; [ORIG 16-BIT INS]
    1057                            .dwcfi  cfa_offset, 24
    1058                            .dwcfi  save_reg_to_mem, 14, -4
    1059                            .dwcfi  save_reg_to_mem, 4, -8
    1060                            .dwcfi  save_reg_to_mem, 3, -12
    1061                            .dwcfi  save_reg_to_mem, 2, -16
    1062                            .dwcfi  save_reg_to_mem, 1, -20
    1063                            .dwcfi  save_reg_to_mem, 0, -24
    1064                    $C$DW$90        .dwtag  DW_TAG_variable
    1065                            .dwattr $C$DW$90, DW_AT_name("ulBase")
    1066                            .dwattr $C$DW$90, DW_AT_TI_symbol_name("ulBase")
    1067                            .dwattr $C$DW$90, DW_AT_type(*$C$DW$T$13)
    1068                            .dwattr $C$DW$90, DW_AT_location[DW_OP_breg13 0]
    1069                    
    1070                    $C$DW$91        .dwtag  DW_TAG_variable
    1071                            .dwattr $C$DW$91, DW_AT_name("ulTimer")
    1072                            .dwattr $C$DW$91, DW_AT_TI_symbol_name("ulTimer")
    1073                            .dwattr $C$DW$91, DW_AT_type(*$C$DW$T$13)
    1074                            .dwattr $C$DW$91, DW_AT_location[DW_OP_breg13 4]
    1075                    
    1076                    $C$DW$92        .dwtag  DW_TAG_variable
    1077                            .dwattr $C$DW$92, DW_AT_name("ulEvent")
    1078                            .dwattr $C$DW$92, DW_AT_TI_symbol_name("ulEvent")
    1079                            .dwattr $C$DW$92, DW_AT_type(*$C$DW$T$13)
    1080                            .dwattr $C$DW$92, DW_AT_location[DW_OP_breg13 8]
    1081                    
    1082 00000122 9202              STR       A3, [SP, #8]          ; [DPU_3_PIPE] |400|  ; [ORIG 16-BIT INS]
    1083 00000124 9101              STR       A2, [SP, #4]          ; [DPU_3_PIPE] |400|  ; [ORIG 16-BIT INS]
    1084 00000126 9000              STR       A1, [SP, #0]          ; [DPU_3_PIPE] |400|  ; [ORIG 16-BIT INS]
    1085                            .dwpsn  file "C:/TI_CodeComposer/StellarisWare-LM3S1968/driverlib/timer.c",line 411,column 5,i
    1086 00000128 9901              LDR       A2, [SP, #4]          ; [DPU_3_PIPE] |411|  ; [ORIG 16-BIT INS]
    1087 0000012a 400CF640          MOV       A1, #3084             ; [DPU_3_PIPE] |411|  ; [KEEP 32-BIT INS]
    1088 0000012e 4008              ANDS      A1, A1, A2            ; [DPU_3_PIPE] |411|  ; [ORIG 16-BIT INS]
    1089 00000130 9001              STR       A1, [SP, #4]          ; [DPU_3_PIPE] |411|  ; [ORIG 16-BIT INS]
    1090                            .dwpsn  file "C:/TI_CodeComposer/StellarisWare-LM3S1968/driverlib/timer.c",line 412,column 5,i
    1091 00000132 9800              LDR       A1, [SP, #0]          ; [DPU_3_PIPE] |412|  ; [ORIG 16-BIT INS]
    1092 00000134 9C02              LDR       V1, [SP, #8]          ; [DPU_3_PIPE] |412|  ; [ORIG 16-BIT INS]
    1093 00000136 9B01              LDR       A4, [SP, #4]          ; [DPU_3_PIPE] |412|  ; [ORIG 16-BIT INS]
    1094 00000138 9901              LDR       A2, [SP, #4]          ; [DPU_3_PIPE] |412|  ; [ORIG 16-BIT INS]
    1095 0000013a 9A00              LDR       A3, [SP, #0]          ; [DPU_3_PIPE] |412|  ; [ORIG 16-BIT INS]
    1096 0000013c 68C0              LDR       A1, [A1, #12]         ; [DPU_3_PIPE] |412|  ; [ORIG 16-BIT INS]
    1097 0000013e 4021              ANDS      A2, A2, V1            ; [DPU_3_PIPE] |412|  ; [ORIG 16-BIT INS]
    1098 00000140 4398              BICS      A1, A1, A4            ; [DPU_3_PIPE] |412|  ; [ORIG 16-BIT INS]
    1099 00000142 4301              ORRS      A2, A2, A1            ; [DPU_3_PIPE] |412|  ; [ORIG 16-BIT INS]
    1100 00000144 60D1              STR       A2, [A3, #12]         ; [DPU_3_PIPE] |412|  ; [ORIG 16-BIT INS]
TI ARM Assembler PC v15.12.1 Wed Apr 19 15:29:26 2017

Tools Copyright (c) 1996-2015 Texas Instruments Incorporated
Task_TimeOfDay.asm                                                   PAGE   21

    1101                            .dwpsn  file "C:/TI_CodeComposer/StellarisWare-LM3S1968/driverlib/timer.c",line 414,column 1,i
    1102 00000146 9000              STR       A1, [SP, #0]          ; [DPU_3_PIPE]  ; [ORIG 16-BIT INS]
    1103                    $C$DW$93        .dwtag  DW_TAG_TI_branch
    1104                            .dwattr $C$DW$93, DW_AT_low_pc(0x00)
    1105                            .dwattr $C$DW$93, DW_AT_TI_return
    1106                    
    1107 00000148 BD1F              POP       {A1, A2, A3, A4, V1, PC} ; [DPU_3_PIPE]  ; [ORIG 16-BIT INS]
    1108                            .dwcfi  cfa_offset, 0
    1109                            ; BRANCH OCCURS                  ; [] 
    1110                            .dwattr $C$DW$86, DW_AT_TI_end_file("C:/TI_CodeComposer/StellarisWare-LM3S1968/driverlib/timer
    1111                            .dwattr $C$DW$86, DW_AT_TI_end_line(0x19e)
    1112                            .dwattr $C$DW$86, DW_AT_TI_end_column(0x01)
    1113                            .dwendentry
    1114                            .dwendtag $C$DW$86
    1115                    
    1116 0000014a                   .sect   ".text"
    1117                            .clink
    1118                            .thumbfunc TimerControlStall
    1119 0000014a                   .thumb
    1120                            .global TimerControlStall
    1121                    
    1122                    $C$DW$94        .dwtag  DW_TAG_subprogram
    1123                            .dwattr $C$DW$94, DW_AT_name("TimerControlStall")
    1124                            .dwattr $C$DW$94, DW_AT_low_pc(TimerControlStall)
    1125                            .dwattr $C$DW$94, DW_AT_high_pc(0x00)
    1126                            .dwattr $C$DW$94, DW_AT_TI_symbol_name("TimerControlStall")
    1127                            .dwattr $C$DW$94, DW_AT_external
    1128                            .dwattr $C$DW$94, DW_AT_TI_begin_file("C:/TI_CodeComposer/StellarisWare-LM3S1968/driverlib/tim
    1129                            .dwattr $C$DW$94, DW_AT_TI_begin_line(0x1b2)
    1130                            .dwattr $C$DW$94, DW_AT_TI_begin_column(0x01)
    1131                            .dwattr $C$DW$94, DW_AT_decl_file("C:/TI_CodeComposer/StellarisWare-LM3S1968/driverlib/timer.c
    1132                            .dwattr $C$DW$94, DW_AT_decl_line(0x1b2)
    1133                            .dwattr $C$DW$94, DW_AT_decl_column(0x01)
    1134                            .dwattr $C$DW$94, DW_AT_TI_max_frame_size(0x10)
    1135                            .dwpsn  file "C:/TI_CodeComposer/StellarisWare-LM3S1968/driverlib/timer.c",line 436,column 1,i
    1136                    
    1137                            .dwfde $C$DW$CIE, TimerControlStall
    1138                    $C$DW$95        .dwtag  DW_TAG_formal_parameter
    1139                            .dwattr $C$DW$95, DW_AT_name("ulBase")
    1140                            .dwattr $C$DW$95, DW_AT_TI_symbol_name("ulBase")
    1141                            .dwattr $C$DW$95, DW_AT_type(*$C$DW$T$13)
    1142                            .dwattr $C$DW$95, DW_AT_location[DW_OP_reg0]
    1143                    
    1144                    $C$DW$96        .dwtag  DW_TAG_formal_parameter
    1145                            .dwattr $C$DW$96, DW_AT_name("ulTimer")
    1146                            .dwattr $C$DW$96, DW_AT_TI_symbol_name("ulTimer")
    1147                            .dwattr $C$DW$96, DW_AT_type(*$C$DW$T$13)
    1148                            .dwattr $C$DW$96, DW_AT_location[DW_OP_reg1]
    1149                    
    1150                    $C$DW$97        .dwtag  DW_TAG_formal_parameter
    1151                            .dwattr $C$DW$97, DW_AT_name("bStall")
    1152                            .dwattr $C$DW$97, DW_AT_TI_symbol_name("bStall")
    1153                            .dwattr $C$DW$97, DW_AT_type(*$C$DW$T$80)
    1154                            .dwattr $C$DW$97, DW_AT_location[DW_OP_reg2]
    1155                    
TI ARM Assembler PC v15.12.1 Wed Apr 19 15:29:26 2017

Tools Copyright (c) 1996-2015 Texas Instruments Incorporated
Task_TimeOfDay.asm                                                   PAGE   22

    1156                    
    1157                    ;*****************************************************************************
    1158                    ;* FUNCTION NAME: TimerControlStall                                          *
    1159                    ;*                                                                           *
    1160                    ;*   Regs Modified     : A1,A2,SP,SR                                         *
    1161                    ;*   Regs Used         : A1,A2,A3,SP,LR,SR                                   *
    1162                    ;*   Local Frame Size  : 0 Args + 12 Auto + 0 Save = 12 byte                 *
    1163                    ;*****************************************************************************
    1164 0000014a           TimerControlStall:
    1165                    ;* --------------------------------------------------------------------------*
    1166                            .dwcfi  cfa_offset, 0
    1167 0000014a 0D10F1AD          SUB       SP, SP, #16           ; [DPU_3_PIPE]  ; [KEEP 32-BIT INS]
    1168                            .dwcfi  cfa_offset, 16
    1169                    $C$DW$98        .dwtag  DW_TAG_variable
    1170                            .dwattr $C$DW$98, DW_AT_name("ulBase")
    1171                            .dwattr $C$DW$98, DW_AT_TI_symbol_name("ulBase")
    1172                            .dwattr $C$DW$98, DW_AT_type(*$C$DW$T$13)
    1173                            .dwattr $C$DW$98, DW_AT_location[DW_OP_breg13 0]
    1174                    
    1175                    $C$DW$99        .dwtag  DW_TAG_variable
    1176                            .dwattr $C$DW$99, DW_AT_name("ulTimer")
    1177                            .dwattr $C$DW$99, DW_AT_TI_symbol_name("ulTimer")
    1178                            .dwattr $C$DW$99, DW_AT_type(*$C$DW$T$13)
    1179                            .dwattr $C$DW$99, DW_AT_location[DW_OP_breg13 4]
    1180                    
    1181                    $C$DW$100       .dwtag  DW_TAG_variable
    1182                            .dwattr $C$DW$100, DW_AT_name("bStall")
    1183                            .dwattr $C$DW$100, DW_AT_TI_symbol_name("bStall")
    1184                            .dwattr $C$DW$100, DW_AT_type(*$C$DW$T$80)
    1185                            .dwattr $C$DW$100, DW_AT_location[DW_OP_breg13 8]
    1186                    
    1187 0000014e 2008F88D          STRB      A3, [SP, #8]          ; [DPU_3_PIPE] |436|  ; [KEEP 32-BIT INS]
    1188 00000152 9101              STR       A2, [SP, #4]          ; [DPU_3_PIPE] |436|  ; [ORIG 16-BIT INS]
    1189 00000154 9000              STR       A1, [SP, #0]          ; [DPU_3_PIPE] |436|  ; [ORIG 16-BIT INS]
    1190                            .dwpsn  file "C:/TI_CodeComposer/StellarisWare-LM3S1968/driverlib/timer.c",line 447,column 5,i
    1191 00000156 9901              LDR       A2, [SP, #4]          ; [DPU_3_PIPE] |447|  ; [ORIG 16-BIT INS]
    1192 00000158 2002F240          MOV       A1, #514              ; [DPU_3_PIPE] |447|  ; [KEEP 32-BIT INS]
    1193 0000015c 4008              ANDS      A1, A1, A2            ; [DPU_3_PIPE] |447|  ; [ORIG 16-BIT INS]
    1194 0000015e 9001              STR       A1, [SP, #4]          ; [DPU_3_PIPE] |447|  ; [ORIG 16-BIT INS]
    1195                            .dwpsn  file "C:/TI_CodeComposer/StellarisWare-LM3S1968/driverlib/timer.c",line 448,column 5,i
    1196 00000160 0008F89D          LDRB      A1, [SP, #8]          ; [DPU_3_PIPE] |448|  ; [KEEP 32-BIT INS]
    1197 00000164 B120              CBZ       A1, ||$C$L9||         ; []  ; [ORIG 16-BIT INS]
    1198                            ; BRANCHCC OCCURS {||$C$L9||}    ; [] |448| 
    1199                    ;* --------------------------------------------------------------------------*
    1200 00000166 9900              LDR       A2, [SP, #0]          ; [DPU_3_PIPE] |448|  ; [ORIG 16-BIT INS]
    1201 00000168 9801              LDR       A1, [SP, #4]          ; [DPU_3_PIPE] |448|  ; [ORIG 16-BIT INS]
    1202 0000016a 68C9              LDR       A2, [A2, #12]         ; [DPU_3_PIPE] |448|  ; [ORIG 16-BIT INS]
    1203 0000016c 4308              ORRS      A1, A1, A2            ; [DPU_3_PIPE] |448|  ; [ORIG 16-BIT INS]
    1204 0000016e E003              B         ||$C$L10||            ; [DPU_3_PIPE] |448|  ; [ORIG 16-BIT INS]
    1205                            ; BRANCH OCCURS {||$C$L10||}     ; [] |448| 
    1206                    ;* --------------------------------------------------------------------------*
    1207 00000170           ||$C$L9||:    
    1208 00000170 9800              LDR       A1, [SP, #0]          ; [DPU_3_PIPE] |448|  ; [ORIG 16-BIT INS]
    1209 00000172 9901              LDR       A2, [SP, #4]          ; [DPU_3_PIPE] |448|  ; [ORIG 16-BIT INS]
    1210 00000174 68C0              LDR       A1, [A1, #12]         ; [DPU_3_PIPE] |448|  ; [ORIG 16-BIT INS]
TI ARM Assembler PC v15.12.1 Wed Apr 19 15:29:26 2017

Tools Copyright (c) 1996-2015 Texas Instruments Incorporated
Task_TimeOfDay.asm                                                   PAGE   23

    1211 00000176 4388              BICS      A1, A1, A2            ; [DPU_3_PIPE] |448|  ; [ORIG 16-BIT INS]
    1212                    ;* --------------------------------------------------------------------------*
    1213 00000178           ||$C$L10||:    
    1214 00000178 9900              LDR       A2, [SP, #0]          ; [DPU_3_PIPE] |448|  ; [ORIG 16-BIT INS]
    1215 0000017a 60C8              STR       A1, [A2, #12]         ; [DPU_3_PIPE] |448|  ; [ORIG 16-BIT INS]
    1216                            .dwpsn  file "C:/TI_CodeComposer/StellarisWare-LM3S1968/driverlib/timer.c",line 451,column 1,i
    1217 0000017c B004              ADD       SP, SP, #16           ; [DPU_3_PIPE]  ; [ORIG 16-BIT INS]
    1218                            .dwcfi  cfa_offset, 0
    1219                    $C$DW$101       .dwtag  DW_TAG_TI_branch
    1220                            .dwattr $C$DW$101, DW_AT_low_pc(0x00)
    1221                            .dwattr $C$DW$101, DW_AT_TI_return
    1222                    
    1223 0000017e 4770              BX        LR                    ; [DPU_3_PIPE]  ; [ORIG 16-BIT INS]
    1224                            ; BRANCH OCCURS                  ; [] 
    1225                            .dwattr $C$DW$94, DW_AT_TI_end_file("C:/TI_CodeComposer/StellarisWare-LM3S1968/driverlib/timer
    1226                            .dwattr $C$DW$94, DW_AT_TI_end_line(0x1c3)
    1227                            .dwattr $C$DW$94, DW_AT_TI_end_column(0x01)
    1228                            .dwendentry
    1229                            .dwendtag $C$DW$94
    1230                    
    1231 00000180                   .sect   ".text"
    1232                            .clink
    1233                            .thumbfunc TimerControlWaitOnTrigger
    1234 00000180                   .thumb
    1235                            .global TimerControlWaitOnTrigger
    1236                    
    1237                    $C$DW$102       .dwtag  DW_TAG_subprogram
    1238                            .dwattr $C$DW$102, DW_AT_name("TimerControlWaitOnTrigger")
    1239                            .dwattr $C$DW$102, DW_AT_low_pc(TimerControlWaitOnTrigger)
    1240                            .dwattr $C$DW$102, DW_AT_high_pc(0x00)
    1241                            .dwattr $C$DW$102, DW_AT_TI_symbol_name("TimerControlWaitOnTrigger")
    1242                            .dwattr $C$DW$102, DW_AT_external
    1243                            .dwattr $C$DW$102, DW_AT_TI_begin_file("C:/TI_CodeComposer/StellarisWare-LM3S1968/driverlib/ti
    1244                            .dwattr $C$DW$102, DW_AT_TI_begin_line(0x1da)
    1245                            .dwattr $C$DW$102, DW_AT_TI_begin_column(0x01)
    1246                            .dwattr $C$DW$102, DW_AT_decl_file("C:/TI_CodeComposer/StellarisWare-LM3S1968/driverlib/timer.
    1247                            .dwattr $C$DW$102, DW_AT_decl_line(0x1da)
    1248                            .dwattr $C$DW$102, DW_AT_decl_column(0x01)
    1249                            .dwattr $C$DW$102, DW_AT_TI_max_frame_size(0x10)
    1250                            .dwpsn  file "C:/TI_CodeComposer/StellarisWare-LM3S1968/driverlib/timer.c",line 476,column 1,i
    1251                    
    1252                            .dwfde $C$DW$CIE, TimerControlWaitOnTrigger
    1253                    $C$DW$103       .dwtag  DW_TAG_formal_parameter
    1254                            .dwattr $C$DW$103, DW_AT_name("ulBase")
    1255                            .dwattr $C$DW$103, DW_AT_TI_symbol_name("ulBase")
    1256                            .dwattr $C$DW$103, DW_AT_type(*$C$DW$T$13)
    1257                            .dwattr $C$DW$103, DW_AT_location[DW_OP_reg0]
    1258                    
    1259                    $C$DW$104       .dwtag  DW_TAG_formal_parameter
    1260                            .dwattr $C$DW$104, DW_AT_name("ulTimer")
    1261                            .dwattr $C$DW$104, DW_AT_TI_symbol_name("ulTimer")
    1262                            .dwattr $C$DW$104, DW_AT_type(*$C$DW$T$13)
    1263                            .dwattr $C$DW$104, DW_AT_location[DW_OP_reg1]
    1264                    
    1265                    $C$DW$105       .dwtag  DW_TAG_formal_parameter
TI ARM Assembler PC v15.12.1 Wed Apr 19 15:29:26 2017

Tools Copyright (c) 1996-2015 Texas Instruments Incorporated
Task_TimeOfDay.asm                                                   PAGE   24

    1266                            .dwattr $C$DW$105, DW_AT_name("bWait")
    1267                            .dwattr $C$DW$105, DW_AT_TI_symbol_name("bWait")
    1268                            .dwattr $C$DW$105, DW_AT_type(*$C$DW$T$80)
    1269                            .dwattr $C$DW$105, DW_AT_location[DW_OP_reg2]
    1270                    
    1271                    
    1272                    ;*****************************************************************************
    1273                    ;* FUNCTION NAME: TimerControlWaitOnTrigger                                  *
    1274                    ;*                                                                           *
    1275                    ;*   Regs Modified     : A1,A2,SP,SR                                         *
    1276                    ;*   Regs Used         : A1,A2,A3,SP,LR,SR                                   *
    1277                    ;*   Local Frame Size  : 0 Args + 12 Auto + 0 Save = 12 byte                 *
    1278                    ;*****************************************************************************
    1279 00000180           TimerControlWaitOnTrigger:
    1280                    ;* --------------------------------------------------------------------------*
    1281                            .dwcfi  cfa_offset, 0
    1282 00000180 0D10F1AD          SUB       SP, SP, #16           ; [DPU_3_PIPE]  ; [KEEP 32-BIT INS]
    1283                            .dwcfi  cfa_offset, 16
    1284                    $C$DW$106       .dwtag  DW_TAG_variable
    1285                            .dwattr $C$DW$106, DW_AT_name("ulBase")
    1286                            .dwattr $C$DW$106, DW_AT_TI_symbol_name("ulBase")
    1287                            .dwattr $C$DW$106, DW_AT_type(*$C$DW$T$13)
    1288                            .dwattr $C$DW$106, DW_AT_location[DW_OP_breg13 0]
    1289                    
    1290                    $C$DW$107       .dwtag  DW_TAG_variable
    1291                            .dwattr $C$DW$107, DW_AT_name("ulTimer")
    1292                            .dwattr $C$DW$107, DW_AT_TI_symbol_name("ulTimer")
    1293                            .dwattr $C$DW$107, DW_AT_type(*$C$DW$T$13)
    1294                            .dwattr $C$DW$107, DW_AT_location[DW_OP_breg13 4]
    1295                    
    1296                    $C$DW$108       .dwtag  DW_TAG_variable
    1297                            .dwattr $C$DW$108, DW_AT_name("bWait")
    1298                            .dwattr $C$DW$108, DW_AT_TI_symbol_name("bWait")
    1299                            .dwattr $C$DW$108, DW_AT_type(*$C$DW$T$80)
    1300                            .dwattr $C$DW$108, DW_AT_location[DW_OP_breg13 8]
    1301                    
    1302 00000184 2008F88D          STRB      A3, [SP, #8]          ; [DPU_3_PIPE] |476|  ; [KEEP 32-BIT INS]
    1303 00000188 9101              STR       A2, [SP, #4]          ; [DPU_3_PIPE] |476|  ; [ORIG 16-BIT INS]
    1304 0000018a 9000              STR       A1, [SP, #0]          ; [DPU_3_PIPE] |476|  ; [ORIG 16-BIT INS]
    1305                            .dwpsn  file "C:/TI_CodeComposer/StellarisWare-LM3S1968/driverlib/timer.c",line 487,column 5,i
    1306 0000018c 9801              LDR       A1, [SP, #4]          ; [DPU_3_PIPE] |487|  ; [ORIG 16-BIT INS]
    1307 0000018e 0FFFF010          TST       A1, #255              ; [DPU_3_PIPE] |487|  ; [KEEP 32-BIT INS]
    1308 00000192 D00F              BEQ       ||$C$L12||            ; [DPU_3_PIPE] |487|  ; [ORIG 16-BIT INS]
    1309                            ; BRANCHCC OCCURS {||$C$L12||}   ; [] |487| 
    1310                    ;* --------------------------------------------------------------------------*
    1311                            .dwpsn  file "C:/TI_CodeComposer/StellarisWare-LM3S1968/driverlib/timer.c",line 489,column 9,i
    1312 00000194 0008F89D          LDRB      A1, [SP, #8]          ; [DPU_3_PIPE] |489|  ; [KEEP 32-BIT INS]
    1313 00000198 B130              CBZ       A1, ||$C$L11||        ; []  ; [ORIG 16-BIT INS]
    1314                            ; BRANCHCC OCCURS {||$C$L11||}   ; [] |489| 
    1315                    ;* --------------------------------------------------------------------------*
    1316                            .dwpsn  file "C:/TI_CodeComposer/StellarisWare-LM3S1968/driverlib/timer.c",line 491,column 13,
    1317 0000019a 9800              LDR       A1, [SP, #0]          ; [DPU_3_PIPE] |491|  ; [ORIG 16-BIT INS]
    1318 0000019c 1D00              ADDS      A1, A1, #4            ; [DPU_3_PIPE] |491|  ; [ORIG 16-BIT INS]
    1319 0000019e 6801              LDR       A2, [A1, #0]          ; [DPU_3_PIPE] |491|  ; [ORIG 16-BIT INS]
    1320 000001a0 0140F041          ORR       A2, A2, #64           ; [DPU_3_PIPE] |491|  ; [KEEP 32-BIT INS]
TI ARM Assembler PC v15.12.1 Wed Apr 19 15:29:26 2017

Tools Copyright (c) 1996-2015 Texas Instruments Incorporated
Task_TimeOfDay.asm                                                   PAGE   25

    1321 000001a4 6001              STR       A2, [A1, #0]          ; [DPU_3_PIPE] |491|  ; [ORIG 16-BIT INS]
    1322                            .dwpsn  file "C:/TI_CodeComposer/StellarisWare-LM3S1968/driverlib/timer.c",line 492,column 9,i
    1323 000001a6 E005              B         ||$C$L12||            ; [DPU_3_PIPE] |492|  ; [ORIG 16-BIT INS]
    1324                            ; BRANCH OCCURS {||$C$L12||}     ; [] |492| 
    1325                    ;* --------------------------------------------------------------------------*
    1326 000001a8           ||$C$L11||:    
    1327                            .dwpsn  file "C:/TI_CodeComposer/StellarisWare-LM3S1968/driverlib/timer.c",line 495,column 13,
    1328 000001a8 9800              LDR       A1, [SP, #0]          ; [DPU_3_PIPE] |495|  ; [ORIG 16-BIT INS]
    1329 000001aa 1D00              ADDS      A1, A1, #4            ; [DPU_3_PIPE] |495|  ; [ORIG 16-BIT INS]
    1330 000001ac 6801              LDR       A2, [A1, #0]          ; [DPU_3_PIPE] |495|  ; [ORIG 16-BIT INS]
    1331 000001ae 0140F021          BIC       A2, A2, #64           ; [DPU_3_PIPE] |495|  ; [KEEP 32-BIT INS]
    1332 000001b2 6001              STR       A2, [A1, #0]          ; [DPU_3_PIPE] |495|  ; [ORIG 16-BIT INS]
    1333                    ;* --------------------------------------------------------------------------*
    1334 000001b4           ||$C$L12||:    
    1335                            .dwpsn  file "C:/TI_CodeComposer/StellarisWare-LM3S1968/driverlib/timer.c",line 502,column 5,i
    1336 000001b4 9801              LDR       A1, [SP, #4]          ; [DPU_3_PIPE] |502|  ; [ORIG 16-BIT INS]
    1337 000001b6 4F7FF410          TST       A1, #65280            ; [DPU_3_PIPE] |502|  ; [KEEP 32-BIT INS]
    1338 000001ba D00F              BEQ       ||$C$L14||            ; [DPU_3_PIPE] |502|  ; [ORIG 16-BIT INS]
    1339                            ; BRANCHCC OCCURS {||$C$L14||}   ; [] |502| 
    1340                    ;* --------------------------------------------------------------------------*
    1341                            .dwpsn  file "C:/TI_CodeComposer/StellarisWare-LM3S1968/driverlib/timer.c",line 504,column 9,i
    1342 000001bc 0008F89D          LDRB      A1, [SP, #8]          ; [DPU_3_PIPE] |504|  ; [KEEP 32-BIT INS]
    1343 000001c0 B130              CBZ       A1, ||$C$L13||        ; []  ; [ORIG 16-BIT INS]
    1344                            ; BRANCHCC OCCURS {||$C$L13||}   ; [] |504| 
    1345                    ;* --------------------------------------------------------------------------*
    1346                            .dwpsn  file "C:/TI_CodeComposer/StellarisWare-LM3S1968/driverlib/timer.c",line 506,column 13,
    1347 000001c2 9800              LDR       A1, [SP, #0]          ; [DPU_3_PIPE] |506|  ; [ORIG 16-BIT INS]
    1348 000001c4 3008              ADDS      A1, A1, #8            ; [DPU_3_PIPE] |506|  ; [ORIG 16-BIT INS]
    1349 000001c6 6801              LDR       A2, [A1, #0]          ; [DPU_3_PIPE] |506|  ; [ORIG 16-BIT INS]
    1350 000001c8 0140F041          ORR       A2, A2, #64           ; [DPU_3_PIPE] |506|  ; [KEEP 32-BIT INS]
    1351 000001cc 6001              STR       A2, [A1, #0]          ; [DPU_3_PIPE] |506|  ; [ORIG 16-BIT INS]
    1352                            .dwpsn  file "C:/TI_CodeComposer/StellarisWare-LM3S1968/driverlib/timer.c",line 507,column 9,i
    1353 000001ce E005              B         ||$C$L14||            ; [DPU_3_PIPE] |507|  ; [ORIG 16-BIT INS]
    1354                            ; BRANCH OCCURS {||$C$L14||}     ; [] |507| 
    1355                    ;* --------------------------------------------------------------------------*
    1356 000001d0           ||$C$L13||:    
    1357                            .dwpsn  file "C:/TI_CodeComposer/StellarisWare-LM3S1968/driverlib/timer.c",line 510,column 13,
    1358 000001d0 9800              LDR       A1, [SP, #0]          ; [DPU_3_PIPE] |510|  ; [ORIG 16-BIT INS]
    1359 000001d2 3008              ADDS      A1, A1, #8            ; [DPU_3_PIPE] |510|  ; [ORIG 16-BIT INS]
    1360 000001d4 6801              LDR       A2, [A1, #0]          ; [DPU_3_PIPE] |510|  ; [ORIG 16-BIT INS]
    1361 000001d6 0140F021          BIC       A2, A2, #64           ; [DPU_3_PIPE] |510|  ; [KEEP 32-BIT INS]
    1362 000001da 6001              STR       A2, [A1, #0]          ; [DPU_3_PIPE] |510|  ; [ORIG 16-BIT INS]
    1363                            .dwpsn  file "C:/TI_CodeComposer/StellarisWare-LM3S1968/driverlib/timer.c",line 513,column 1,i
    1364                    ;* --------------------------------------------------------------------------*
    1365 000001dc           ||$C$L14||:    
    1366 000001dc B004              ADD       SP, SP, #16           ; [DPU_3_PIPE]  ; [ORIG 16-BIT INS]
    1367                            .dwcfi  cfa_offset, 0
    1368                    $C$DW$109       .dwtag  DW_TAG_TI_branch
    1369                            .dwattr $C$DW$109, DW_AT_low_pc(0x00)
    1370                            .dwattr $C$DW$109, DW_AT_TI_return
    1371                    
    1372 000001de 4770              BX        LR                    ; [DPU_3_PIPE]  ; [ORIG 16-BIT INS]
    1373                            ; BRANCH OCCURS                  ; [] 
    1374                            .dwattr $C$DW$102, DW_AT_TI_end_file("C:/TI_CodeComposer/StellarisWare-LM3S1968/driverlib/time
    1375                            .dwattr $C$DW$102, DW_AT_TI_end_line(0x201)
TI ARM Assembler PC v15.12.1 Wed Apr 19 15:29:26 2017

Tools Copyright (c) 1996-2015 Texas Instruments Incorporated
Task_TimeOfDay.asm                                                   PAGE   26

    1376                            .dwattr $C$DW$102, DW_AT_TI_end_column(0x01)
    1377                            .dwendentry
    1378                            .dwendtag $C$DW$102
    1379                    
    1380 000001e0                   .sect   ".text"
    1381                            .clink
    1382                            .thumbfunc TimerRTCEnable
    1383 000001e0                   .thumb
    1384                            .global TimerRTCEnable
    1385                    
    1386                    $C$DW$110       .dwtag  DW_TAG_subprogram
    1387                            .dwattr $C$DW$110, DW_AT_name("TimerRTCEnable")
    1388                            .dwattr $C$DW$110, DW_AT_low_pc(TimerRTCEnable)
    1389                            .dwattr $C$DW$110, DW_AT_high_pc(0x00)
    1390                            .dwattr $C$DW$110, DW_AT_TI_symbol_name("TimerRTCEnable")
    1391                            .dwattr $C$DW$110, DW_AT_external
    1392                            .dwattr $C$DW$110, DW_AT_TI_begin_file("C:/TI_CodeComposer/StellarisWare-LM3S1968/driverlib/ti
    1393                            .dwattr $C$DW$110, DW_AT_TI_begin_line(0x210)
    1394                            .dwattr $C$DW$110, DW_AT_TI_begin_column(0x01)
    1395                            .dwattr $C$DW$110, DW_AT_decl_file("C:/TI_CodeComposer/StellarisWare-LM3S1968/driverlib/timer.
    1396                            .dwattr $C$DW$110, DW_AT_decl_line(0x210)
    1397                            .dwattr $C$DW$110, DW_AT_decl_column(0x01)
    1398                            .dwattr $C$DW$110, DW_AT_TI_max_frame_size(0x08)
    1399                            .dwpsn  file "C:/TI_CodeComposer/StellarisWare-LM3S1968/driverlib/timer.c",line 529,column 1,i
    1400                    
    1401                            .dwfde $C$DW$CIE, TimerRTCEnable
    1402                    $C$DW$111       .dwtag  DW_TAG_formal_parameter
    1403                            .dwattr $C$DW$111, DW_AT_name("ulBase")
    1404                            .dwattr $C$DW$111, DW_AT_TI_symbol_name("ulBase")
    1405                            .dwattr $C$DW$111, DW_AT_type(*$C$DW$T$13)
    1406                            .dwattr $C$DW$111, DW_AT_location[DW_OP_reg0]
    1407                    
    1408                    
    1409                    ;*****************************************************************************
    1410                    ;* FUNCTION NAME: TimerRTCEnable                                             *
    1411                    ;*                                                                           *
    1412                    ;*   Regs Modified     : A1,A2,SP,SR                                         *
    1413                    ;*   Regs Used         : A1,A2,SP,LR,SR                                      *
    1414                    ;*   Local Frame Size  : 0 Args + 4 Auto + 0 Save = 4 byte                   *
    1415                    ;*****************************************************************************
    1416 000001e0           TimerRTCEnable:
    1417                    ;* --------------------------------------------------------------------------*
    1418                            .dwcfi  cfa_offset, 0
    1419 000001e0 0D08F1AD          SUB       SP, SP, #8            ; [DPU_3_PIPE]  ; [KEEP 32-BIT INS]
    1420                            .dwcfi  cfa_offset, 8
    1421                    $C$DW$112       .dwtag  DW_TAG_variable
    1422                            .dwattr $C$DW$112, DW_AT_name("ulBase")
    1423                            .dwattr $C$DW$112, DW_AT_TI_symbol_name("ulBase")
    1424                            .dwattr $C$DW$112, DW_AT_type(*$C$DW$T$13)
    1425                            .dwattr $C$DW$112, DW_AT_location[DW_OP_breg13 0]
    1426                    
    1427 000001e4 9000              STR       A1, [SP, #0]          ; [DPU_3_PIPE] |529|  ; [ORIG 16-BIT INS]
    1428                            .dwpsn  file "C:/TI_CodeComposer/StellarisWare-LM3S1968/driverlib/timer.c",line 538,column 5,i
    1429 000001e6 9800              LDR       A1, [SP, #0]          ; [DPU_3_PIPE] |538|  ; [ORIG 16-BIT INS]
    1430 000001e8 300C              ADDS      A1, A1, #12           ; [DPU_3_PIPE] |538|  ; [ORIG 16-BIT INS]
TI ARM Assembler PC v15.12.1 Wed Apr 19 15:29:26 2017

Tools Copyright (c) 1996-2015 Texas Instruments Incorporated
Task_TimeOfDay.asm                                                   PAGE   27

    1431 000001ea 6801              LDR       A2, [A1, #0]          ; [DPU_3_PIPE] |538|  ; [ORIG 16-BIT INS]
    1432 000001ec 0110F041          ORR       A2, A2, #16           ; [DPU_3_PIPE] |538|  ; [KEEP 32-BIT INS]
    1433 000001f0 6001              STR       A2, [A1, #0]          ; [DPU_3_PIPE] |538|  ; [ORIG 16-BIT INS]
    1434                            .dwpsn  file "C:/TI_CodeComposer/StellarisWare-LM3S1968/driverlib/timer.c",line 539,column 1,i
    1435 000001f2 B002              ADD       SP, SP, #8            ; [DPU_3_PIPE]  ; [ORIG 16-BIT INS]
    1436                            .dwcfi  cfa_offset, 0
    1437                    $C$DW$113       .dwtag  DW_TAG_TI_branch
    1438                            .dwattr $C$DW$113, DW_AT_low_pc(0x00)
    1439                            .dwattr $C$DW$113, DW_AT_TI_return
    1440                    
    1441 000001f4 4770              BX        LR                    ; [DPU_3_PIPE]  ; [ORIG 16-BIT INS]
    1442                            ; BRANCH OCCURS                  ; [] 
    1443                            .dwattr $C$DW$110, DW_AT_TI_end_file("C:/TI_CodeComposer/StellarisWare-LM3S1968/driverlib/time
    1444                            .dwattr $C$DW$110, DW_AT_TI_end_line(0x21b)
    1445                            .dwattr $C$DW$110, DW_AT_TI_end_column(0x01)
    1446                            .dwendentry
    1447                            .dwendtag $C$DW$110
    1448                    
    1449 000001f6                   .sect   ".text"
    1450                            .clink
    1451                            .thumbfunc TimerRTCDisable
    1452 000001f6                   .thumb
    1453                            .global TimerRTCDisable
    1454                    
    1455                    $C$DW$114       .dwtag  DW_TAG_subprogram
    1456                            .dwattr $C$DW$114, DW_AT_name("TimerRTCDisable")
    1457                            .dwattr $C$DW$114, DW_AT_low_pc(TimerRTCDisable)
    1458                            .dwattr $C$DW$114, DW_AT_high_pc(0x00)
    1459                            .dwattr $C$DW$114, DW_AT_TI_symbol_name("TimerRTCDisable")
    1460                            .dwattr $C$DW$114, DW_AT_external
    1461                            .dwattr $C$DW$114, DW_AT_TI_begin_file("C:/TI_CodeComposer/StellarisWare-LM3S1968/driverlib/ti
    1462                            .dwattr $C$DW$114, DW_AT_TI_begin_line(0x229)
    1463                            .dwattr $C$DW$114, DW_AT_TI_begin_column(0x01)
    1464                            .dwattr $C$DW$114, DW_AT_decl_file("C:/TI_CodeComposer/StellarisWare-LM3S1968/driverlib/timer.
    1465                            .dwattr $C$DW$114, DW_AT_decl_line(0x229)
    1466                            .dwattr $C$DW$114, DW_AT_decl_column(0x01)
    1467                            .dwattr $C$DW$114, DW_AT_TI_max_frame_size(0x08)
    1468                            .dwpsn  file "C:/TI_CodeComposer/StellarisWare-LM3S1968/driverlib/timer.c",line 554,column 1,i
    1469                    
    1470                            .dwfde $C$DW$CIE, TimerRTCDisable
    1471                    $C$DW$115       .dwtag  DW_TAG_formal_parameter
    1472                            .dwattr $C$DW$115, DW_AT_name("ulBase")
    1473                            .dwattr $C$DW$115, DW_AT_TI_symbol_name("ulBase")
    1474                            .dwattr $C$DW$115, DW_AT_type(*$C$DW$T$13)
    1475                            .dwattr $C$DW$115, DW_AT_location[DW_OP_reg0]
    1476                    
    1477                    
    1478                    ;*****************************************************************************
    1479                    ;* FUNCTION NAME: TimerRTCDisable                                            *
    1480                    ;*                                                                           *
    1481                    ;*   Regs Modified     : A1,A2,SP,SR                                         *
    1482                    ;*   Regs Used         : A1,A2,SP,LR,SR                                      *
    1483                    ;*   Local Frame Size  : 0 Args + 4 Auto + 0 Save = 4 byte                   *
    1484                    ;*****************************************************************************
    1485 000001f6           TimerRTCDisable:
TI ARM Assembler PC v15.12.1 Wed Apr 19 15:29:26 2017

Tools Copyright (c) 1996-2015 Texas Instruments Incorporated
Task_TimeOfDay.asm                                                   PAGE   28

    1486                    ;* --------------------------------------------------------------------------*
    1487                            .dwcfi  cfa_offset, 0
    1488 000001f6 0D08F1AD          SUB       SP, SP, #8            ; [DPU_3_PIPE]  ; [KEEP 32-BIT INS]
    1489                            .dwcfi  cfa_offset, 8
    1490                    $C$DW$116       .dwtag  DW_TAG_variable
    1491                            .dwattr $C$DW$116, DW_AT_name("ulBase")
    1492                            .dwattr $C$DW$116, DW_AT_TI_symbol_name("ulBase")
    1493                            .dwattr $C$DW$116, DW_AT_type(*$C$DW$T$13)
    1494                            .dwattr $C$DW$116, DW_AT_location[DW_OP_breg13 0]
    1495                    
    1496 000001fa 9000              STR       A1, [SP, #0]          ; [DPU_3_PIPE] |554|  ; [ORIG 16-BIT INS]
    1497                            .dwpsn  file "C:/TI_CodeComposer/StellarisWare-LM3S1968/driverlib/timer.c",line 563,column 5,i
    1498 000001fc 9800              LDR       A1, [SP, #0]          ; [DPU_3_PIPE] |563|  ; [ORIG 16-BIT INS]
    1499 000001fe 300C              ADDS      A1, A1, #12           ; [DPU_3_PIPE] |563|  ; [ORIG 16-BIT INS]
    1500 00000200 6801              LDR       A2, [A1, #0]          ; [DPU_3_PIPE] |563|  ; [ORIG 16-BIT INS]
    1501 00000202 0110F021          BIC       A2, A2, #16           ; [DPU_3_PIPE] |563|  ; [KEEP 32-BIT INS]
    1502 00000206 6001              STR       A2, [A1, #0]          ; [DPU_3_PIPE] |563|  ; [ORIG 16-BIT INS]
    1503                            .dwpsn  file "C:/TI_CodeComposer/StellarisWare-LM3S1968/driverlib/timer.c",line 564,column 1,i
    1504 00000208 B002              ADD       SP, SP, #8            ; [DPU_3_PIPE]  ; [ORIG 16-BIT INS]
    1505                            .dwcfi  cfa_offset, 0
    1506                    $C$DW$117       .dwtag  DW_TAG_TI_branch
    1507                            .dwattr $C$DW$117, DW_AT_low_pc(0x00)
    1508                            .dwattr $C$DW$117, DW_AT_TI_return
    1509                    
    1510 0000020a 4770              BX        LR                    ; [DPU_3_PIPE]  ; [ORIG 16-BIT INS]
    1511                            ; BRANCH OCCURS                  ; [] 
    1512                            .dwattr $C$DW$114, DW_AT_TI_end_file("C:/TI_CodeComposer/StellarisWare-LM3S1968/driverlib/time
    1513                            .dwattr $C$DW$114, DW_AT_TI_end_line(0x234)
    1514                            .dwattr $C$DW$114, DW_AT_TI_end_column(0x01)
    1515                            .dwendentry
    1516                            .dwendtag $C$DW$114
    1517                    
    1518 0000020c                   .sect   ".text"
    1519                            .clink
    1520                            .thumbfunc TimerPrescaleSet
    1521 0000020c                   .thumb
    1522                            .global TimerPrescaleSet
    1523                    
    1524                    $C$DW$118       .dwtag  DW_TAG_subprogram
    1525                            .dwattr $C$DW$118, DW_AT_name("TimerPrescaleSet")
    1526                            .dwattr $C$DW$118, DW_AT_low_pc(TimerPrescaleSet)
    1527                            .dwattr $C$DW$118, DW_AT_high_pc(0x00)
    1528                            .dwattr $C$DW$118, DW_AT_TI_symbol_name("TimerPrescaleSet")
    1529                            .dwattr $C$DW$118, DW_AT_external
    1530                            .dwattr $C$DW$118, DW_AT_TI_begin_file("C:/TI_CodeComposer/StellarisWare-LM3S1968/driverlib/ti
    1531                            .dwattr $C$DW$118, DW_AT_TI_begin_line(0x24f)
    1532                            .dwattr $C$DW$118, DW_AT_TI_begin_column(0x01)
    1533                            .dwattr $C$DW$118, DW_AT_decl_file("C:/TI_CodeComposer/StellarisWare-LM3S1968/driverlib/timer.
    1534                            .dwattr $C$DW$118, DW_AT_decl_line(0x24f)
    1535                            .dwattr $C$DW$118, DW_AT_decl_column(0x01)
    1536                            .dwattr $C$DW$118, DW_AT_TI_max_frame_size(0x10)
    1537                            .dwpsn  file "C:/TI_CodeComposer/StellarisWare-LM3S1968/driverlib/timer.c",line 593,column 1,i
    1538                    
    1539                            .dwfde $C$DW$CIE, TimerPrescaleSet
    1540                    $C$DW$119       .dwtag  DW_TAG_formal_parameter
TI ARM Assembler PC v15.12.1 Wed Apr 19 15:29:26 2017

Tools Copyright (c) 1996-2015 Texas Instruments Incorporated
Task_TimeOfDay.asm                                                   PAGE   29

    1541                            .dwattr $C$DW$119, DW_AT_name("ulBase")
    1542                            .dwattr $C$DW$119, DW_AT_TI_symbol_name("ulBase")
    1543                            .dwattr $C$DW$119, DW_AT_type(*$C$DW$T$13)
    1544                            .dwattr $C$DW$119, DW_AT_location[DW_OP_reg0]
    1545                    
    1546                    $C$DW$120       .dwtag  DW_TAG_formal_parameter
    1547                            .dwattr $C$DW$120, DW_AT_name("ulTimer")
    1548                            .dwattr $C$DW$120, DW_AT_TI_symbol_name("ulTimer")
    1549                            .dwattr $C$DW$120, DW_AT_type(*$C$DW$T$13)
    1550                            .dwattr $C$DW$120, DW_AT_location[DW_OP_reg1]
    1551                    
    1552                    $C$DW$121       .dwtag  DW_TAG_formal_parameter
    1553                            .dwattr $C$DW$121, DW_AT_name("ulValue")
    1554                            .dwattr $C$DW$121, DW_AT_TI_symbol_name("ulValue")
    1555                            .dwattr $C$DW$121, DW_AT_type(*$C$DW$T$13)
    1556                            .dwattr $C$DW$121, DW_AT_location[DW_OP_reg2]
    1557                    
    1558                    
    1559                    ;*****************************************************************************
    1560                    ;* FUNCTION NAME: TimerPrescaleSet                                           *
    1561                    ;*                                                                           *
    1562                    ;*   Regs Modified     : A1,A2,SP,SR                                         *
    1563                    ;*   Regs Used         : A1,A2,A3,SP,LR,SR                                   *
    1564                    ;*   Local Frame Size  : 0 Args + 12 Auto + 0 Save = 12 byte                 *
    1565                    ;*****************************************************************************
    1566 0000020c           TimerPrescaleSet:
    1567                    ;* --------------------------------------------------------------------------*
    1568                            .dwcfi  cfa_offset, 0
    1569 0000020c 0D10F1AD          SUB       SP, SP, #16           ; [DPU_3_PIPE]  ; [KEEP 32-BIT INS]
    1570                            .dwcfi  cfa_offset, 16
    1571                    $C$DW$122       .dwtag  DW_TAG_variable
    1572                            .dwattr $C$DW$122, DW_AT_name("ulBase")
    1573                            .dwattr $C$DW$122, DW_AT_TI_symbol_name("ulBase")
    1574                            .dwattr $C$DW$122, DW_AT_type(*$C$DW$T$13)
    1575                            .dwattr $C$DW$122, DW_AT_location[DW_OP_breg13 0]
    1576                    
    1577                    $C$DW$123       .dwtag  DW_TAG_variable
    1578                            .dwattr $C$DW$123, DW_AT_name("ulTimer")
    1579                            .dwattr $C$DW$123, DW_AT_TI_symbol_name("ulTimer")
    1580                            .dwattr $C$DW$123, DW_AT_type(*$C$DW$T$13)
    1581                            .dwattr $C$DW$123, DW_AT_location[DW_OP_breg13 4]
    1582                    
    1583                    $C$DW$124       .dwtag  DW_TAG_variable
    1584                            .dwattr $C$DW$124, DW_AT_name("ulValue")
    1585                            .dwattr $C$DW$124, DW_AT_TI_symbol_name("ulValue")
    1586                            .dwattr $C$DW$124, DW_AT_type(*$C$DW$T$13)
    1587                            .dwattr $C$DW$124, DW_AT_location[DW_OP_breg13 8]
    1588                    
    1589 00000210 9202              STR       A3, [SP, #8]          ; [DPU_3_PIPE] |593|  ; [ORIG 16-BIT INS]
    1590 00000212 9101              STR       A2, [SP, #4]          ; [DPU_3_PIPE] |593|  ; [ORIG 16-BIT INS]
    1591 00000214 9000              STR       A1, [SP, #0]          ; [DPU_3_PIPE] |593|  ; [ORIG 16-BIT INS]
    1592                            .dwpsn  file "C:/TI_CodeComposer/StellarisWare-LM3S1968/driverlib/timer.c",line 605,column 5,i
    1593 00000216 9801              LDR       A1, [SP, #4]          ; [DPU_3_PIPE] |605|  ; [ORIG 16-BIT INS]
    1594 00000218 0FFFF010          TST       A1, #255              ; [DPU_3_PIPE] |605|  ; [KEEP 32-BIT INS]
    1595 0000021c D002              BEQ       ||$C$L15||            ; [DPU_3_PIPE] |605|  ; [ORIG 16-BIT INS]
TI ARM Assembler PC v15.12.1 Wed Apr 19 15:29:26 2017

Tools Copyright (c) 1996-2015 Texas Instruments Incorporated
Task_TimeOfDay.asm                                                   PAGE   30

    1596                            ; BRANCHCC OCCURS {||$C$L15||}   ; [] |605| 
    1597                    ;* --------------------------------------------------------------------------*
    1598                            .dwpsn  file "C:/TI_CodeComposer/StellarisWare-LM3S1968/driverlib/timer.c",line 607,column 9,i
    1599 0000021e 9802              LDR       A1, [SP, #8]          ; [DPU_3_PIPE] |607|  ; [ORIG 16-BIT INS]
    1600 00000220 9900              LDR       A2, [SP, #0]          ; [DPU_3_PIPE] |607|  ; [ORIG 16-BIT INS]
    1601 00000222 6388              STR       A1, [A2, #56]         ; [DPU_3_PIPE] |607|  ; [ORIG 16-BIT INS]
    1602                    ;* --------------------------------------------------------------------------*
    1603 00000224           ||$C$L15||:    
    1604                            .dwpsn  file "C:/TI_CodeComposer/StellarisWare-LM3S1968/driverlib/timer.c",line 613,column 5,i
    1605 00000224 9801              LDR       A1, [SP, #4]          ; [DPU_3_PIPE] |613|  ; [ORIG 16-BIT INS]
    1606 00000226 4F7FF410          TST       A1, #65280            ; [DPU_3_PIPE] |613|  ; [KEEP 32-BIT INS]
    1607 0000022a D002              BEQ       ||$C$L16||            ; [DPU_3_PIPE] |613|  ; [ORIG 16-BIT INS]
    1608                            ; BRANCHCC OCCURS {||$C$L16||}   ; [] |613| 
    1609                    ;* --------------------------------------------------------------------------*
    1610                            .dwpsn  file "C:/TI_CodeComposer/StellarisWare-LM3S1968/driverlib/timer.c",line 615,column 9,i
    1611 0000022c 9802              LDR       A1, [SP, #8]          ; [DPU_3_PIPE] |615|  ; [ORIG 16-BIT INS]
    1612 0000022e 9900              LDR       A2, [SP, #0]          ; [DPU_3_PIPE] |615|  ; [ORIG 16-BIT INS]
    1613 00000230 63C8              STR       A1, [A2, #60]         ; [DPU_3_PIPE] |615|  ; [ORIG 16-BIT INS]
    1614                            .dwpsn  file "C:/TI_CodeComposer/StellarisWare-LM3S1968/driverlib/timer.c",line 617,column 1,i
    1615                    ;* --------------------------------------------------------------------------*
    1616 00000232           ||$C$L16||:    
    1617 00000232 B004              ADD       SP, SP, #16           ; [DPU_3_PIPE]  ; [ORIG 16-BIT INS]
    1618                            .dwcfi  cfa_offset, 0
    1619                    $C$DW$125       .dwtag  DW_TAG_TI_branch
    1620                            .dwattr $C$DW$125, DW_AT_low_pc(0x00)
    1621                            .dwattr $C$DW$125, DW_AT_TI_return
    1622                    
    1623 00000234 4770              BX        LR                    ; [DPU_3_PIPE]  ; [ORIG 16-BIT INS]
    1624                            ; BRANCH OCCURS                  ; [] 
    1625                            .dwattr $C$DW$118, DW_AT_TI_end_file("C:/TI_CodeComposer/StellarisWare-LM3S1968/driverlib/time
    1626                            .dwattr $C$DW$118, DW_AT_TI_end_line(0x269)
    1627                            .dwattr $C$DW$118, DW_AT_TI_end_column(0x01)
    1628                            .dwendentry
    1629                            .dwendtag $C$DW$118
    1630                    
    1631 00000236                   .sect   ".text"
    1632                            .clink
    1633                            .thumbfunc TimerPrescaleGet
    1634 00000236                   .thumb
    1635                            .global TimerPrescaleGet
    1636                    
    1637                    $C$DW$126       .dwtag  DW_TAG_subprogram
    1638                            .dwattr $C$DW$126, DW_AT_name("TimerPrescaleGet")
    1639                            .dwattr $C$DW$126, DW_AT_low_pc(TimerPrescaleGet)
    1640                            .dwattr $C$DW$126, DW_AT_high_pc(0x00)
    1641                            .dwattr $C$DW$126, DW_AT_TI_symbol_name("TimerPrescaleGet")
    1642                            .dwattr $C$DW$126, DW_AT_external
    1643                            .dwattr $C$DW$126, DW_AT_type(*$C$DW$T$13)
    1644                            .dwattr $C$DW$126, DW_AT_TI_begin_file("C:/TI_CodeComposer/StellarisWare-LM3S1968/driverlib/ti
    1645                            .dwattr $C$DW$126, DW_AT_TI_begin_line(0x281)
    1646                            .dwattr $C$DW$126, DW_AT_TI_begin_column(0x01)
    1647                            .dwattr $C$DW$126, DW_AT_decl_file("C:/TI_CodeComposer/StellarisWare-LM3S1968/driverlib/timer.
    1648                            .dwattr $C$DW$126, DW_AT_decl_line(0x281)
    1649                            .dwattr $C$DW$126, DW_AT_decl_column(0x01)
    1650                            .dwattr $C$DW$126, DW_AT_TI_max_frame_size(0x08)
TI ARM Assembler PC v15.12.1 Wed Apr 19 15:29:26 2017

Tools Copyright (c) 1996-2015 Texas Instruments Incorporated
Task_TimeOfDay.asm                                                   PAGE   31

    1651                            .dwpsn  file "C:/TI_CodeComposer/StellarisWare-LM3S1968/driverlib/timer.c",line 642,column 1,i
    1652                    
    1653                            .dwfde $C$DW$CIE, TimerPrescaleGet
    1654                    $C$DW$127       .dwtag  DW_TAG_formal_parameter
    1655                            .dwattr $C$DW$127, DW_AT_name("ulBase")
    1656                            .dwattr $C$DW$127, DW_AT_TI_symbol_name("ulBase")
    1657                            .dwattr $C$DW$127, DW_AT_type(*$C$DW$T$13)
    1658                            .dwattr $C$DW$127, DW_AT_location[DW_OP_reg0]
    1659                    
    1660                    $C$DW$128       .dwtag  DW_TAG_formal_parameter
    1661                            .dwattr $C$DW$128, DW_AT_name("ulTimer")
    1662                            .dwattr $C$DW$128, DW_AT_TI_symbol_name("ulTimer")
    1663                            .dwattr $C$DW$128, DW_AT_type(*$C$DW$T$13)
    1664                            .dwattr $C$DW$128, DW_AT_location[DW_OP_reg1]
    1665                    
    1666                    
    1667                    ;*****************************************************************************
    1668                    ;* FUNCTION NAME: TimerPrescaleGet                                           *
    1669                    ;*                                                                           *
    1670                    ;*   Regs Modified     : A1,SP,SR                                            *
    1671                    ;*   Regs Used         : A1,A2,SP,LR,SR                                      *
    1672                    ;*   Local Frame Size  : 0 Args + 8 Auto + 0 Save = 8 byte                   *
    1673                    ;*****************************************************************************
    1674 00000236           TimerPrescaleGet:
    1675                    ;* --------------------------------------------------------------------------*
    1676                            .dwcfi  cfa_offset, 0
    1677 00000236 0D08F1AD          SUB       SP, SP, #8            ; [DPU_3_PIPE]  ; [KEEP 32-BIT INS]
    1678                            .dwcfi  cfa_offset, 8
    1679                    $C$DW$129       .dwtag  DW_TAG_variable
    1680                            .dwattr $C$DW$129, DW_AT_name("ulBase")
    1681                            .dwattr $C$DW$129, DW_AT_TI_symbol_name("ulBase")
    1682                            .dwattr $C$DW$129, DW_AT_type(*$C$DW$T$13)
    1683                            .dwattr $C$DW$129, DW_AT_location[DW_OP_breg13 0]
    1684                    
    1685                    $C$DW$130       .dwtag  DW_TAG_variable
    1686                            .dwattr $C$DW$130, DW_AT_name("ulTimer")
    1687                            .dwattr $C$DW$130, DW_AT_TI_symbol_name("ulTimer")
    1688                            .dwattr $C$DW$130, DW_AT_type(*$C$DW$T$13)
    1689                            .dwattr $C$DW$130, DW_AT_location[DW_OP_breg13 4]
    1690                    
    1691 0000023a 9101              STR       A2, [SP, #4]          ; [DPU_3_PIPE] |642|  ; [ORIG 16-BIT INS]
    1692 0000023c 9000              STR       A1, [SP, #0]          ; [DPU_3_PIPE] |642|  ; [ORIG 16-BIT INS]
    1693                            .dwpsn  file "C:/TI_CodeComposer/StellarisWare-LM3S1968/driverlib/timer.c",line 653,column 5,i
    1694 0000023e 9801              LDR       A1, [SP, #4]          ; [DPU_3_PIPE] |653|  ; [ORIG 16-BIT INS]
    1695 00000240 28FF              CMP       A1, #255              ; [DPU_3_PIPE] |653|  ; [ORIG 16-BIT INS]
    1696 00000242 D102              BNE       ||$C$L17||            ; [DPU_3_PIPE] |653|  ; [ORIG 16-BIT INS]
    1697                            ; BRANCHCC OCCURS {||$C$L17||}   ; [] |653| 
    1698                    ;* --------------------------------------------------------------------------*
    1699 00000244 9800              LDR       A1, [SP, #0]          ; [DPU_3_PIPE] |653|  ; [ORIG 16-BIT INS]
    1700 00000246 6B80              LDR       A1, [A1, #56]         ; [DPU_3_PIPE] |653|  ; [ORIG 16-BIT INS]
    1701 00000248 E001              B         ||$C$L18||            ; [DPU_3_PIPE] |653|  ; [ORIG 16-BIT INS]
    1702                            ; BRANCH OCCURS {||$C$L18||}     ; [] |653| 
    1703                    ;* --------------------------------------------------------------------------*
    1704 0000024a           ||$C$L17||:    
    1705 0000024a 9800              LDR       A1, [SP, #0]          ; [DPU_3_PIPE] |653|  ; [ORIG 16-BIT INS]
TI ARM Assembler PC v15.12.1 Wed Apr 19 15:29:26 2017

Tools Copyright (c) 1996-2015 Texas Instruments Incorporated
Task_TimeOfDay.asm                                                   PAGE   32

    1706 0000024c 6BC0              LDR       A1, [A1, #60]         ; [DPU_3_PIPE] |653|  ; [ORIG 16-BIT INS]
    1707                    ;* --------------------------------------------------------------------------*
    1708 0000024e           ||$C$L18||:    
    1709                            .dwpsn  file "C:/TI_CodeComposer/StellarisWare-LM3S1968/driverlib/timer.c",line 655,column 1,i
    1710 0000024e B002              ADD       SP, SP, #8            ; [DPU_3_PIPE]  ; [ORIG 16-BIT INS]
    1711                            .dwcfi  cfa_offset, 0
    1712                    $C$DW$131       .dwtag  DW_TAG_TI_branch
    1713                            .dwattr $C$DW$131, DW_AT_low_pc(0x00)
    1714                            .dwattr $C$DW$131, DW_AT_TI_return
    1715                    
    1716 00000250 4770              BX        LR                    ; [DPU_3_PIPE]  ; [ORIG 16-BIT INS]
    1717                            ; BRANCH OCCURS                  ; [] 
    1718                            .dwattr $C$DW$126, DW_AT_TI_end_file("C:/TI_CodeComposer/StellarisWare-LM3S1968/driverlib/time
    1719                            .dwattr $C$DW$126, DW_AT_TI_end_line(0x28f)
    1720                            .dwattr $C$DW$126, DW_AT_TI_end_column(0x01)
    1721                            .dwendentry
    1722                            .dwendtag $C$DW$126
    1723                    
    1724 00000252                   .sect   ".text"
    1725                            .clink
    1726                            .thumbfunc TimerPrescaleMatchSet
    1727 00000252                   .thumb
    1728                            .global TimerPrescaleMatchSet
    1729                    
    1730                    $C$DW$132       .dwtag  DW_TAG_subprogram
    1731                            .dwattr $C$DW$132, DW_AT_name("TimerPrescaleMatchSet")
    1732                            .dwattr $C$DW$132, DW_AT_low_pc(TimerPrescaleMatchSet)
    1733                            .dwattr $C$DW$132, DW_AT_high_pc(0x00)
    1734                            .dwattr $C$DW$132, DW_AT_TI_symbol_name("TimerPrescaleMatchSet")
    1735                            .dwattr $C$DW$132, DW_AT_external
    1736                            .dwattr $C$DW$132, DW_AT_TI_begin_file("C:/TI_CodeComposer/StellarisWare-LM3S1968/driverlib/ti
    1737                            .dwattr $C$DW$132, DW_AT_TI_begin_line(0x2ab)
    1738                            .dwattr $C$DW$132, DW_AT_TI_begin_column(0x01)
    1739                            .dwattr $C$DW$132, DW_AT_decl_file("C:/TI_CodeComposer/StellarisWare-LM3S1968/driverlib/timer.
    1740                            .dwattr $C$DW$132, DW_AT_decl_line(0x2ab)
    1741                            .dwattr $C$DW$132, DW_AT_decl_column(0x01)
    1742                            .dwattr $C$DW$132, DW_AT_TI_max_frame_size(0x10)
    1743                            .dwpsn  file "C:/TI_CodeComposer/StellarisWare-LM3S1968/driverlib/timer.c",line 685,column 1,i
    1744                    
    1745                            .dwfde $C$DW$CIE, TimerPrescaleMatchSet
    1746                    $C$DW$133       .dwtag  DW_TAG_formal_parameter
    1747                            .dwattr $C$DW$133, DW_AT_name("ulBase")
    1748                            .dwattr $C$DW$133, DW_AT_TI_symbol_name("ulBase")
    1749                            .dwattr $C$DW$133, DW_AT_type(*$C$DW$T$13)
    1750                            .dwattr $C$DW$133, DW_AT_location[DW_OP_reg0]
    1751                    
    1752                    $C$DW$134       .dwtag  DW_TAG_formal_parameter
    1753                            .dwattr $C$DW$134, DW_AT_name("ulTimer")
    1754                            .dwattr $C$DW$134, DW_AT_TI_symbol_name("ulTimer")
    1755                            .dwattr $C$DW$134, DW_AT_type(*$C$DW$T$13)
    1756                            .dwattr $C$DW$134, DW_AT_location[DW_OP_reg1]
    1757                    
    1758                    $C$DW$135       .dwtag  DW_TAG_formal_parameter
    1759                            .dwattr $C$DW$135, DW_AT_name("ulValue")
    1760                            .dwattr $C$DW$135, DW_AT_TI_symbol_name("ulValue")
TI ARM Assembler PC v15.12.1 Wed Apr 19 15:29:26 2017

Tools Copyright (c) 1996-2015 Texas Instruments Incorporated
Task_TimeOfDay.asm                                                   PAGE   33

    1761                            .dwattr $C$DW$135, DW_AT_type(*$C$DW$T$13)
    1762                            .dwattr $C$DW$135, DW_AT_location[DW_OP_reg2]
    1763                    
    1764                    
    1765                    ;*****************************************************************************
    1766                    ;* FUNCTION NAME: TimerPrescaleMatchSet                                      *
    1767                    ;*                                                                           *
    1768                    ;*   Regs Modified     : A1,A2,SP,SR                                         *
    1769                    ;*   Regs Used         : A1,A2,A3,SP,LR,SR                                   *
    1770                    ;*   Local Frame Size  : 0 Args + 12 Auto + 0 Save = 12 byte                 *
    1771                    ;*****************************************************************************
    1772 00000252           TimerPrescaleMatchSet:
    1773                    ;* --------------------------------------------------------------------------*
    1774                            .dwcfi  cfa_offset, 0
    1775 00000252 0D10F1AD          SUB       SP, SP, #16           ; [DPU_3_PIPE]  ; [KEEP 32-BIT INS]
    1776                            .dwcfi  cfa_offset, 16
    1777                    $C$DW$136       .dwtag  DW_TAG_variable
    1778                            .dwattr $C$DW$136, DW_AT_name("ulBase")
    1779                            .dwattr $C$DW$136, DW_AT_TI_symbol_name("ulBase")
    1780                            .dwattr $C$DW$136, DW_AT_type(*$C$DW$T$13)
    1781                            .dwattr $C$DW$136, DW_AT_location[DW_OP_breg13 0]
    1782                    
    1783                    $C$DW$137       .dwtag  DW_TAG_variable
    1784                            .dwattr $C$DW$137, DW_AT_name("ulTimer")
    1785                            .dwattr $C$DW$137, DW_AT_TI_symbol_name("ulTimer")
    1786                            .dwattr $C$DW$137, DW_AT_type(*$C$DW$T$13)
    1787                            .dwattr $C$DW$137, DW_AT_location[DW_OP_breg13 4]
    1788                    
    1789                    $C$DW$138       .dwtag  DW_TAG_variable
    1790                            .dwattr $C$DW$138, DW_AT_name("ulValue")
    1791                            .dwattr $C$DW$138, DW_AT_TI_symbol_name("ulValue")
    1792                            .dwattr $C$DW$138, DW_AT_type(*$C$DW$T$13)
    1793                            .dwattr $C$DW$138, DW_AT_location[DW_OP_breg13 8]
    1794                    
    1795 00000256 9202              STR       A3, [SP, #8]          ; [DPU_3_PIPE] |685|  ; [ORIG 16-BIT INS]
    1796 00000258 9101              STR       A2, [SP, #4]          ; [DPU_3_PIPE] |685|  ; [ORIG 16-BIT INS]
    1797 0000025a 9000              STR       A1, [SP, #0]          ; [DPU_3_PIPE] |685|  ; [ORIG 16-BIT INS]
    1798                            .dwpsn  file "C:/TI_CodeComposer/StellarisWare-LM3S1968/driverlib/timer.c",line 697,column 5,i
    1799 0000025c 9801              LDR       A1, [SP, #4]          ; [DPU_3_PIPE] |697|  ; [ORIG 16-BIT INS]
    1800 0000025e 0FFFF010          TST       A1, #255              ; [DPU_3_PIPE] |697|  ; [KEEP 32-BIT INS]
    1801 00000262 D002              BEQ       ||$C$L19||            ; [DPU_3_PIPE] |697|  ; [ORIG 16-BIT INS]
    1802                            ; BRANCHCC OCCURS {||$C$L19||}   ; [] |697| 
    1803                    ;* --------------------------------------------------------------------------*
    1804                            .dwpsn  file "C:/TI_CodeComposer/StellarisWare-LM3S1968/driverlib/timer.c",line 699,column 9,i
    1805 00000264 9802              LDR       A1, [SP, #8]          ; [DPU_3_PIPE] |699|  ; [ORIG 16-BIT INS]
    1806 00000266 9900              LDR       A2, [SP, #0]          ; [DPU_3_PIPE] |699|  ; [ORIG 16-BIT INS]
    1807 00000268 6408              STR       A1, [A2, #64]         ; [DPU_3_PIPE] |699|  ; [ORIG 16-BIT INS]
    1808                    ;* --------------------------------------------------------------------------*
    1809 0000026a           ||$C$L19||:    
    1810                            .dwpsn  file "C:/TI_CodeComposer/StellarisWare-LM3S1968/driverlib/timer.c",line 705,column 5,i
    1811 0000026a 9801              LDR       A1, [SP, #4]          ; [DPU_3_PIPE] |705|  ; [ORIG 16-BIT INS]
    1812 0000026c 4F7FF410          TST       A1, #65280            ; [DPU_3_PIPE] |705|  ; [KEEP 32-BIT INS]
    1813 00000270 D002              BEQ       ||$C$L20||            ; [DPU_3_PIPE] |705|  ; [ORIG 16-BIT INS]
    1814                            ; BRANCHCC OCCURS {||$C$L20||}   ; [] |705| 
    1815                    ;* --------------------------------------------------------------------------*
TI ARM Assembler PC v15.12.1 Wed Apr 19 15:29:26 2017

Tools Copyright (c) 1996-2015 Texas Instruments Incorporated
Task_TimeOfDay.asm                                                   PAGE   34

    1816                            .dwpsn  file "C:/TI_CodeComposer/StellarisWare-LM3S1968/driverlib/timer.c",line 707,column 9,i
    1817 00000272 9802              LDR       A1, [SP, #8]          ; [DPU_3_PIPE] |707|  ; [ORIG 16-BIT INS]
    1818 00000274 9900              LDR       A2, [SP, #0]          ; [DPU_3_PIPE] |707|  ; [ORIG 16-BIT INS]
    1819 00000276 6448              STR       A1, [A2, #68]         ; [DPU_3_PIPE] |707|  ; [ORIG 16-BIT INS]
    1820                            .dwpsn  file "C:/TI_CodeComposer/StellarisWare-LM3S1968/driverlib/timer.c",line 709,column 1,i
    1821                    ;* --------------------------------------------------------------------------*
    1822 00000278           ||$C$L20||:    
    1823 00000278 B004              ADD       SP, SP, #16           ; [DPU_3_PIPE]  ; [ORIG 16-BIT INS]
    1824                            .dwcfi  cfa_offset, 0
    1825                    $C$DW$139       .dwtag  DW_TAG_TI_branch
    1826                            .dwattr $C$DW$139, DW_AT_low_pc(0x00)
    1827                            .dwattr $C$DW$139, DW_AT_TI_return
    1828                    
    1829 0000027a 4770              BX        LR                    ; [DPU_3_PIPE]  ; [ORIG 16-BIT INS]
    1830                            ; BRANCH OCCURS                  ; [] 
    1831                            .dwattr $C$DW$132, DW_AT_TI_end_file("C:/TI_CodeComposer/StellarisWare-LM3S1968/driverlib/time
    1832                            .dwattr $C$DW$132, DW_AT_TI_end_line(0x2c5)
    1833                            .dwattr $C$DW$132, DW_AT_TI_end_column(0x01)
    1834                            .dwendentry
    1835                            .dwendtag $C$DW$132
    1836                    
    1837 0000027c                   .sect   ".text"
    1838                            .clink
    1839                            .thumbfunc TimerPrescaleMatchGet
    1840 0000027c                   .thumb
    1841                            .global TimerPrescaleMatchGet
    1842                    
    1843                    $C$DW$140       .dwtag  DW_TAG_subprogram
    1844                            .dwattr $C$DW$140, DW_AT_name("TimerPrescaleMatchGet")
    1845                            .dwattr $C$DW$140, DW_AT_low_pc(TimerPrescaleMatchGet)
    1846                            .dwattr $C$DW$140, DW_AT_high_pc(0x00)
    1847                            .dwattr $C$DW$140, DW_AT_TI_symbol_name("TimerPrescaleMatchGet")
    1848                            .dwattr $C$DW$140, DW_AT_external
    1849                            .dwattr $C$DW$140, DW_AT_type(*$C$DW$T$13)
    1850                            .dwattr $C$DW$140, DW_AT_TI_begin_file("C:/TI_CodeComposer/StellarisWare-LM3S1968/driverlib/ti
    1851                            .dwattr $C$DW$140, DW_AT_TI_begin_line(0x2de)
    1852                            .dwattr $C$DW$140, DW_AT_TI_begin_column(0x01)
    1853                            .dwattr $C$DW$140, DW_AT_decl_file("C:/TI_CodeComposer/StellarisWare-LM3S1968/driverlib/timer.
    1854                            .dwattr $C$DW$140, DW_AT_decl_line(0x2de)
    1855                            .dwattr $C$DW$140, DW_AT_decl_column(0x01)
    1856                            .dwattr $C$DW$140, DW_AT_TI_max_frame_size(0x08)
    1857                            .dwpsn  file "C:/TI_CodeComposer/StellarisWare-LM3S1968/driverlib/timer.c",line 735,column 1,i
    1858                    
    1859                            .dwfde $C$DW$CIE, TimerPrescaleMatchGet
    1860                    $C$DW$141       .dwtag  DW_TAG_formal_parameter
    1861                            .dwattr $C$DW$141, DW_AT_name("ulBase")
    1862                            .dwattr $C$DW$141, DW_AT_TI_symbol_name("ulBase")
    1863                            .dwattr $C$DW$141, DW_AT_type(*$C$DW$T$13)
    1864                            .dwattr $C$DW$141, DW_AT_location[DW_OP_reg0]
    1865                    
    1866                    $C$DW$142       .dwtag  DW_TAG_formal_parameter
    1867                            .dwattr $C$DW$142, DW_AT_name("ulTimer")
    1868                            .dwattr $C$DW$142, DW_AT_TI_symbol_name("ulTimer")
    1869                            .dwattr $C$DW$142, DW_AT_type(*$C$DW$T$13)
    1870                            .dwattr $C$DW$142, DW_AT_location[DW_OP_reg1]
TI ARM Assembler PC v15.12.1 Wed Apr 19 15:29:26 2017

Tools Copyright (c) 1996-2015 Texas Instruments Incorporated
Task_TimeOfDay.asm                                                   PAGE   35

    1871                    
    1872                    
    1873                    ;*****************************************************************************
    1874                    ;* FUNCTION NAME: TimerPrescaleMatchGet                                      *
    1875                    ;*                                                                           *
    1876                    ;*   Regs Modified     : A1,SP,SR                                            *
    1877                    ;*   Regs Used         : A1,A2,SP,LR,SR                                      *
    1878                    ;*   Local Frame Size  : 0 Args + 8 Auto + 0 Save = 8 byte                   *
    1879                    ;*****************************************************************************
    1880 0000027c           TimerPrescaleMatchGet:
    1881                    ;* --------------------------------------------------------------------------*
    1882                            .dwcfi  cfa_offset, 0
    1883 0000027c 0D08F1AD          SUB       SP, SP, #8            ; [DPU_3_PIPE]  ; [KEEP 32-BIT INS]
    1884                            .dwcfi  cfa_offset, 8
    1885                    $C$DW$143       .dwtag  DW_TAG_variable
    1886                            .dwattr $C$DW$143, DW_AT_name("ulBase")
    1887                            .dwattr $C$DW$143, DW_AT_TI_symbol_name("ulBase")
    1888                            .dwattr $C$DW$143, DW_AT_type(*$C$DW$T$13)
    1889                            .dwattr $C$DW$143, DW_AT_location[DW_OP_breg13 0]
    1890                    
    1891                    $C$DW$144       .dwtag  DW_TAG_variable
    1892                            .dwattr $C$DW$144, DW_AT_name("ulTimer")
    1893                            .dwattr $C$DW$144, DW_AT_TI_symbol_name("ulTimer")
    1894                            .dwattr $C$DW$144, DW_AT_type(*$C$DW$T$13)
    1895                            .dwattr $C$DW$144, DW_AT_location[DW_OP_breg13 4]
    1896                    
    1897 00000280 9101              STR       A2, [SP, #4]          ; [DPU_3_PIPE] |735|  ; [ORIG 16-BIT INS]
    1898 00000282 9000              STR       A1, [SP, #0]          ; [DPU_3_PIPE] |735|  ; [ORIG 16-BIT INS]
    1899                            .dwpsn  file "C:/TI_CodeComposer/StellarisWare-LM3S1968/driverlib/timer.c",line 746,column 5,i
    1900 00000284 9801              LDR       A1, [SP, #4]          ; [DPU_3_PIPE] |746|  ; [ORIG 16-BIT INS]
    1901 00000286 28FF              CMP       A1, #255              ; [DPU_3_PIPE] |746|  ; [ORIG 16-BIT INS]
    1902 00000288 D102              BNE       ||$C$L21||            ; [DPU_3_PIPE] |746|  ; [ORIG 16-BIT INS]
    1903                            ; BRANCHCC OCCURS {||$C$L21||}   ; [] |746| 
    1904                    ;* --------------------------------------------------------------------------*
    1905 0000028a 9800              LDR       A1, [SP, #0]          ; [DPU_3_PIPE] |746|  ; [ORIG 16-BIT INS]
    1906 0000028c 6C00              LDR       A1, [A1, #64]         ; [DPU_3_PIPE] |746|  ; [ORIG 16-BIT INS]
    1907 0000028e E001              B         ||$C$L22||            ; [DPU_3_PIPE] |746|  ; [ORIG 16-BIT INS]
    1908                            ; BRANCH OCCURS {||$C$L22||}     ; [] |746| 
    1909                    ;* --------------------------------------------------------------------------*
    1910 00000290           ||$C$L21||:    
    1911 00000290 9800              LDR       A1, [SP, #0]          ; [DPU_3_PIPE] |746|  ; [ORIG 16-BIT INS]
    1912 00000292 6C40              LDR       A1, [A1, #68]         ; [DPU_3_PIPE] |746|  ; [ORIG 16-BIT INS]
    1913                    ;* --------------------------------------------------------------------------*
    1914 00000294           ||$C$L22||:    
    1915                            .dwpsn  file "C:/TI_CodeComposer/StellarisWare-LM3S1968/driverlib/timer.c",line 748,column 1,i
    1916 00000294 B002              ADD       SP, SP, #8            ; [DPU_3_PIPE]  ; [ORIG 16-BIT INS]
    1917                            .dwcfi  cfa_offset, 0
    1918                    $C$DW$145       .dwtag  DW_TAG_TI_branch
    1919                            .dwattr $C$DW$145, DW_AT_low_pc(0x00)
    1920                            .dwattr $C$DW$145, DW_AT_TI_return
    1921                    
    1922 00000296 4770              BX        LR                    ; [DPU_3_PIPE]  ; [ORIG 16-BIT INS]
    1923                            ; BRANCH OCCURS                  ; [] 
    1924                            .dwattr $C$DW$140, DW_AT_TI_end_file("C:/TI_CodeComposer/StellarisWare-LM3S1968/driverlib/time
    1925                            .dwattr $C$DW$140, DW_AT_TI_end_line(0x2ec)
TI ARM Assembler PC v15.12.1 Wed Apr 19 15:29:26 2017

Tools Copyright (c) 1996-2015 Texas Instruments Incorporated
Task_TimeOfDay.asm                                                   PAGE   36

    1926                            .dwattr $C$DW$140, DW_AT_TI_end_column(0x01)
    1927                            .dwendentry
    1928                            .dwendtag $C$DW$140
    1929                    
    1930 00000298                   .sect   ".text"
    1931                            .clink
    1932                            .thumbfunc TimerLoadSet
    1933 00000298                   .thumb
    1934                            .global TimerLoadSet
    1935                    
    1936                    $C$DW$146       .dwtag  DW_TAG_subprogram
    1937                            .dwattr $C$DW$146, DW_AT_name("TimerLoadSet")
    1938                            .dwattr $C$DW$146, DW_AT_low_pc(TimerLoadSet)
    1939                            .dwattr $C$DW$146, DW_AT_high_pc(0x00)
    1940                            .dwattr $C$DW$146, DW_AT_TI_symbol_name("TimerLoadSet")
    1941                            .dwattr $C$DW$146, DW_AT_external
    1942                            .dwattr $C$DW$146, DW_AT_TI_begin_file("C:/TI_CodeComposer/StellarisWare-LM3S1968/driverlib/ti
    1943                            .dwattr $C$DW$146, DW_AT_TI_begin_line(0x303)
    1944                            .dwattr $C$DW$146, DW_AT_TI_begin_column(0x01)
    1945                            .dwattr $C$DW$146, DW_AT_decl_file("C:/TI_CodeComposer/StellarisWare-LM3S1968/driverlib/timer.
    1946                            .dwattr $C$DW$146, DW_AT_decl_line(0x303)
    1947                            .dwattr $C$DW$146, DW_AT_decl_column(0x01)
    1948                            .dwattr $C$DW$146, DW_AT_TI_max_frame_size(0x10)
    1949                            .dwpsn  file "C:/TI_CodeComposer/StellarisWare-LM3S1968/driverlib/timer.c",line 773,column 1,i
    1950                    
    1951                            .dwfde $C$DW$CIE, TimerLoadSet
    1952                    $C$DW$147       .dwtag  DW_TAG_formal_parameter
    1953                            .dwattr $C$DW$147, DW_AT_name("ulBase")
    1954                            .dwattr $C$DW$147, DW_AT_TI_symbol_name("ulBase")
    1955                            .dwattr $C$DW$147, DW_AT_type(*$C$DW$T$13)
    1956                            .dwattr $C$DW$147, DW_AT_location[DW_OP_reg0]
    1957                    
    1958                    $C$DW$148       .dwtag  DW_TAG_formal_parameter
    1959                            .dwattr $C$DW$148, DW_AT_name("ulTimer")
    1960                            .dwattr $C$DW$148, DW_AT_TI_symbol_name("ulTimer")
    1961                            .dwattr $C$DW$148, DW_AT_type(*$C$DW$T$13)
    1962                            .dwattr $C$DW$148, DW_AT_location[DW_OP_reg1]
    1963                    
    1964                    $C$DW$149       .dwtag  DW_TAG_formal_parameter
    1965                            .dwattr $C$DW$149, DW_AT_name("ulValue")
    1966                            .dwattr $C$DW$149, DW_AT_TI_symbol_name("ulValue")
    1967                            .dwattr $C$DW$149, DW_AT_type(*$C$DW$T$13)
    1968                            .dwattr $C$DW$149, DW_AT_location[DW_OP_reg2]
    1969                    
    1970                    
    1971                    ;*****************************************************************************
    1972                    ;* FUNCTION NAME: TimerLoadSet                                               *
    1973                    ;*                                                                           *
    1974                    ;*   Regs Modified     : A1,A2,SP,SR                                         *
    1975                    ;*   Regs Used         : A1,A2,A3,SP,LR,SR                                   *
    1976                    ;*   Local Frame Size  : 0 Args + 12 Auto + 0 Save = 12 byte                 *
    1977                    ;*****************************************************************************
    1978 00000298           TimerLoadSet:
    1979                    ;* --------------------------------------------------------------------------*
    1980                            .dwcfi  cfa_offset, 0
TI ARM Assembler PC v15.12.1 Wed Apr 19 15:29:26 2017

Tools Copyright (c) 1996-2015 Texas Instruments Incorporated
Task_TimeOfDay.asm                                                   PAGE   37

    1981 00000298 0D10F1AD          SUB       SP, SP, #16           ; [DPU_3_PIPE]  ; [KEEP 32-BIT INS]
    1982                            .dwcfi  cfa_offset, 16
    1983                    $C$DW$150       .dwtag  DW_TAG_variable
    1984                            .dwattr $C$DW$150, DW_AT_name("ulBase")
    1985                            .dwattr $C$DW$150, DW_AT_TI_symbol_name("ulBase")
    1986                            .dwattr $C$DW$150, DW_AT_type(*$C$DW$T$13)
    1987                            .dwattr $C$DW$150, DW_AT_location[DW_OP_breg13 0]
    1988                    
    1989                    $C$DW$151       .dwtag  DW_TAG_variable
    1990                            .dwattr $C$DW$151, DW_AT_name("ulTimer")
    1991                            .dwattr $C$DW$151, DW_AT_TI_symbol_name("ulTimer")
    1992                            .dwattr $C$DW$151, DW_AT_type(*$C$DW$T$13)
    1993                            .dwattr $C$DW$151, DW_AT_location[DW_OP_breg13 4]
    1994                    
    1995                    $C$DW$152       .dwtag  DW_TAG_variable
    1996                            .dwattr $C$DW$152, DW_AT_name("ulValue")
    1997                            .dwattr $C$DW$152, DW_AT_TI_symbol_name("ulValue")
    1998                            .dwattr $C$DW$152, DW_AT_type(*$C$DW$T$13)
    1999                            .dwattr $C$DW$152, DW_AT_location[DW_OP_breg13 8]
    2000                    
    2001 0000029c 9202              STR       A3, [SP, #8]          ; [DPU_3_PIPE] |773|  ; [ORIG 16-BIT INS]
    2002 0000029e 9101              STR       A2, [SP, #4]          ; [DPU_3_PIPE] |773|  ; [ORIG 16-BIT INS]
    2003 000002a0 9000              STR       A1, [SP, #0]          ; [DPU_3_PIPE] |773|  ; [ORIG 16-BIT INS]
    2004                            .dwpsn  file "C:/TI_CodeComposer/StellarisWare-LM3S1968/driverlib/timer.c",line 784,column 5,i
    2005 000002a2 9801              LDR       A1, [SP, #4]          ; [DPU_3_PIPE] |784|  ; [ORIG 16-BIT INS]
    2006 000002a4 0FFFF010          TST       A1, #255              ; [DPU_3_PIPE] |784|  ; [KEEP 32-BIT INS]
    2007 000002a8 D002              BEQ       ||$C$L23||            ; [DPU_3_PIPE] |784|  ; [ORIG 16-BIT INS]
    2008                            ; BRANCHCC OCCURS {||$C$L23||}   ; [] |784| 
    2009                    ;* --------------------------------------------------------------------------*
    2010                            .dwpsn  file "C:/TI_CodeComposer/StellarisWare-LM3S1968/driverlib/timer.c",line 786,column 9,i
    2011 000002aa 9802              LDR       A1, [SP, #8]          ; [DPU_3_PIPE] |786|  ; [ORIG 16-BIT INS]
    2012 000002ac 9900              LDR       A2, [SP, #0]          ; [DPU_3_PIPE] |786|  ; [ORIG 16-BIT INS]
    2013 000002ae 6288              STR       A1, [A2, #40]         ; [DPU_3_PIPE] |786|  ; [ORIG 16-BIT INS]
    2014                    ;* --------------------------------------------------------------------------*
    2015 000002b0           ||$C$L23||:    
    2016                            .dwpsn  file "C:/TI_CodeComposer/StellarisWare-LM3S1968/driverlib/timer.c",line 792,column 5,i
    2017 000002b0 9801              LDR       A1, [SP, #4]          ; [DPU_3_PIPE] |792|  ; [ORIG 16-BIT INS]
    2018 000002b2 4F7FF410          TST       A1, #65280            ; [DPU_3_PIPE] |792|  ; [KEEP 32-BIT INS]
    2019 000002b6 D002              BEQ       ||$C$L24||            ; [DPU_3_PIPE] |792|  ; [ORIG 16-BIT INS]
    2020                            ; BRANCHCC OCCURS {||$C$L24||}   ; [] |792| 
    2021                    ;* --------------------------------------------------------------------------*
    2022                            .dwpsn  file "C:/TI_CodeComposer/StellarisWare-LM3S1968/driverlib/timer.c",line 794,column 9,i
    2023 000002b8 9802              LDR       A1, [SP, #8]          ; [DPU_3_PIPE] |794|  ; [ORIG 16-BIT INS]
    2024 000002ba 9900              LDR       A2, [SP, #0]          ; [DPU_3_PIPE] |794|  ; [ORIG 16-BIT INS]
    2025 000002bc 62C8              STR       A1, [A2, #44]         ; [DPU_3_PIPE] |794|  ; [ORIG 16-BIT INS]
    2026                            .dwpsn  file "C:/TI_CodeComposer/StellarisWare-LM3S1968/driverlib/timer.c",line 796,column 1,i
    2027                    ;* --------------------------------------------------------------------------*
    2028 000002be           ||$C$L24||:    
    2029 000002be B004              ADD       SP, SP, #16           ; [DPU_3_PIPE]  ; [ORIG 16-BIT INS]
    2030                            .dwcfi  cfa_offset, 0
    2031                    $C$DW$153       .dwtag  DW_TAG_TI_branch
    2032                            .dwattr $C$DW$153, DW_AT_low_pc(0x00)
    2033                            .dwattr $C$DW$153, DW_AT_TI_return
    2034                    
    2035 000002c0 4770              BX        LR                    ; [DPU_3_PIPE]  ; [ORIG 16-BIT INS]
TI ARM Assembler PC v15.12.1 Wed Apr 19 15:29:26 2017

Tools Copyright (c) 1996-2015 Texas Instruments Incorporated
Task_TimeOfDay.asm                                                   PAGE   38

    2036                            ; BRANCH OCCURS                  ; [] 
    2037                            .dwattr $C$DW$146, DW_AT_TI_end_file("C:/TI_CodeComposer/StellarisWare-LM3S1968/driverlib/time
    2038                            .dwattr $C$DW$146, DW_AT_TI_end_line(0x31c)
    2039                            .dwattr $C$DW$146, DW_AT_TI_end_column(0x01)
    2040                            .dwendentry
    2041                            .dwendtag $C$DW$146
    2042                    
    2043                    ;******************************************************************************
    2044                    ;* CONSTANT TABLE                                                             *
    2045                    ;******************************************************************************
    2046 000002c2                   .sect   ".text"
    2047                            .align  4
    2048 000002c2 000046C0! ||$C$CON1||:    .bits   g_ppulTimerIntMap,32
         000002c6 00000000 
    2049                            .align  4
    2050 000002c6 00040000! ||$C$CON2||:    .bits   g_ppulTimerIntMap+4,32
         000002ca 00000000 
    2051 000002cc                   .sect   ".text"
    2052                            .clink
    2053                            .thumbfunc TimerLoadGet
    2054 000002cc                   .thumb
    2055                            .global TimerLoadGet
    2056                    
    2057                    $C$DW$154       .dwtag  DW_TAG_subprogram
    2058                            .dwattr $C$DW$154, DW_AT_name("TimerLoadGet")
    2059                            .dwattr $C$DW$154, DW_AT_low_pc(TimerLoadGet)
    2060                            .dwattr $C$DW$154, DW_AT_high_pc(0x00)
    2061                            .dwattr $C$DW$154, DW_AT_TI_symbol_name("TimerLoadGet")
    2062                            .dwattr $C$DW$154, DW_AT_external
    2063                            .dwattr $C$DW$154, DW_AT_type(*$C$DW$T$13)
    2064                            .dwattr $C$DW$154, DW_AT_TI_begin_file("C:/TI_CodeComposer/StellarisWare-LM3S1968/driverlib/ti
    2065                            .dwattr $C$DW$154, DW_AT_TI_begin_line(0x332)
    2066                            .dwattr $C$DW$154, DW_AT_TI_begin_column(0x01)
    2067                            .dwattr $C$DW$154, DW_AT_decl_file("C:/TI_CodeComposer/StellarisWare-LM3S1968/driverlib/timer.
    2068                            .dwattr $C$DW$154, DW_AT_decl_line(0x332)
    2069                            .dwattr $C$DW$154, DW_AT_decl_column(0x01)
    2070                            .dwattr $C$DW$154, DW_AT_TI_max_frame_size(0x08)
    2071                            .dwpsn  file "C:/TI_CodeComposer/StellarisWare-LM3S1968/driverlib/timer.c",line 819,column 1,i
    2072                    
    2073                            .dwfde $C$DW$CIE, TimerLoadGet
    2074                    $C$DW$155       .dwtag  DW_TAG_formal_parameter
    2075                            .dwattr $C$DW$155, DW_AT_name("ulBase")
    2076                            .dwattr $C$DW$155, DW_AT_TI_symbol_name("ulBase")
    2077                            .dwattr $C$DW$155, DW_AT_type(*$C$DW$T$13)
    2078                            .dwattr $C$DW$155, DW_AT_location[DW_OP_reg0]
    2079                    
    2080                    $C$DW$156       .dwtag  DW_TAG_formal_parameter
    2081                            .dwattr $C$DW$156, DW_AT_name("ulTimer")
    2082                            .dwattr $C$DW$156, DW_AT_TI_symbol_name("ulTimer")
    2083                            .dwattr $C$DW$156, DW_AT_type(*$C$DW$T$13)
    2084                            .dwattr $C$DW$156, DW_AT_location[DW_OP_reg1]
    2085                    
    2086                    
    2087                    ;*****************************************************************************
    2088                    ;* FUNCTION NAME: TimerLoadGet                                               *
TI ARM Assembler PC v15.12.1 Wed Apr 19 15:29:26 2017

Tools Copyright (c) 1996-2015 Texas Instruments Incorporated
Task_TimeOfDay.asm                                                   PAGE   39

    2089                    ;*                                                                           *
    2090                    ;*   Regs Modified     : A1,SP,SR                                            *
    2091                    ;*   Regs Used         : A1,A2,SP,LR,SR                                      *
    2092                    ;*   Local Frame Size  : 0 Args + 8 Auto + 0 Save = 8 byte                   *
    2093                    ;*****************************************************************************
    2094 000002cc           TimerLoadGet:
    2095                    ;* --------------------------------------------------------------------------*
    2096                            .dwcfi  cfa_offset, 0
    2097 000002cc 0D08F1AD          SUB       SP, SP, #8            ; [DPU_3_PIPE]  ; [KEEP 32-BIT INS]
    2098                            .dwcfi  cfa_offset, 8
    2099                    $C$DW$157       .dwtag  DW_TAG_variable
    2100                            .dwattr $C$DW$157, DW_AT_name("ulBase")
    2101                            .dwattr $C$DW$157, DW_AT_TI_symbol_name("ulBase")
    2102                            .dwattr $C$DW$157, DW_AT_type(*$C$DW$T$13)
    2103                            .dwattr $C$DW$157, DW_AT_location[DW_OP_breg13 0]
    2104                    
    2105                    $C$DW$158       .dwtag  DW_TAG_variable
    2106                            .dwattr $C$DW$158, DW_AT_name("ulTimer")
    2107                            .dwattr $C$DW$158, DW_AT_TI_symbol_name("ulTimer")
    2108                            .dwattr $C$DW$158, DW_AT_type(*$C$DW$T$13)
    2109                            .dwattr $C$DW$158, DW_AT_location[DW_OP_breg13 4]
    2110                    
    2111 000002d0 9101              STR       A2, [SP, #4]          ; [DPU_3_PIPE] |819|  ; [ORIG 16-BIT INS]
    2112 000002d2 9000              STR       A1, [SP, #0]          ; [DPU_3_PIPE] |819|  ; [ORIG 16-BIT INS]
    2113                            .dwpsn  file "C:/TI_CodeComposer/StellarisWare-LM3S1968/driverlib/timer.c",line 829,column 5,i
    2114 000002d4 9801              LDR       A1, [SP, #4]          ; [DPU_3_PIPE] |829|  ; [ORIG 16-BIT INS]
    2115 000002d6 28FF              CMP       A1, #255              ; [DPU_3_PIPE] |829|  ; [ORIG 16-BIT INS]
    2116 000002d8 D102              BNE       ||$C$L25||            ; [DPU_3_PIPE] |829|  ; [ORIG 16-BIT INS]
    2117                            ; BRANCHCC OCCURS {||$C$L25||}   ; [] |829| 
    2118                    ;* --------------------------------------------------------------------------*
    2119 000002da 9800              LDR       A1, [SP, #0]          ; [DPU_3_PIPE] |829|  ; [ORIG 16-BIT INS]
    2120 000002dc 6A80              LDR       A1, [A1, #40]         ; [DPU_3_PIPE] |829|  ; [ORIG 16-BIT INS]
    2121 000002de E001              B         ||$C$L26||            ; [DPU_3_PIPE] |829|  ; [ORIG 16-BIT INS]
    2122                            ; BRANCH OCCURS {||$C$L26||}     ; [] |829| 
    2123                    ;* --------------------------------------------------------------------------*
    2124 000002e0           ||$C$L25||:    
    2125 000002e0 9800              LDR       A1, [SP, #0]          ; [DPU_3_PIPE] |829|  ; [ORIG 16-BIT INS]
    2126 000002e2 6AC0              LDR       A1, [A1, #44]         ; [DPU_3_PIPE] |829|  ; [ORIG 16-BIT INS]
    2127                    ;* --------------------------------------------------------------------------*
    2128 000002e4           ||$C$L26||:    
    2129                            .dwpsn  file "C:/TI_CodeComposer/StellarisWare-LM3S1968/driverlib/timer.c",line 831,column 1,i
    2130 000002e4 B002              ADD       SP, SP, #8            ; [DPU_3_PIPE]  ; [ORIG 16-BIT INS]
    2131                            .dwcfi  cfa_offset, 0
    2132                    $C$DW$159       .dwtag  DW_TAG_TI_branch
    2133                            .dwattr $C$DW$159, DW_AT_low_pc(0x00)
    2134                            .dwattr $C$DW$159, DW_AT_TI_return
    2135                    
    2136 000002e6 4770              BX        LR                    ; [DPU_3_PIPE]  ; [ORIG 16-BIT INS]
    2137                            ; BRANCH OCCURS                  ; [] 
    2138                            .dwattr $C$DW$154, DW_AT_TI_end_file("C:/TI_CodeComposer/StellarisWare-LM3S1968/driverlib/time
    2139                            .dwattr $C$DW$154, DW_AT_TI_end_line(0x33f)
    2140                            .dwattr $C$DW$154, DW_AT_TI_end_column(0x01)
    2141                            .dwendentry
    2142                            .dwendtag $C$DW$154
    2143                    
TI ARM Assembler PC v15.12.1 Wed Apr 19 15:29:26 2017

Tools Copyright (c) 1996-2015 Texas Instruments Incorporated
Task_TimeOfDay.asm                                                   PAGE   40

    2144 000002e8                   .sect   ".text"
    2145                            .clink
    2146                            .thumbfunc TimerLoadSet64
    2147 000002e8                   .thumb
    2148                            .global TimerLoadSet64
    2149                    
    2150                    $C$DW$160       .dwtag  DW_TAG_subprogram
    2151                            .dwattr $C$DW$160, DW_AT_name("TimerLoadSet64")
    2152                            .dwattr $C$DW$160, DW_AT_low_pc(TimerLoadSet64)
    2153                            .dwattr $C$DW$160, DW_AT_high_pc(0x00)
    2154                            .dwattr $C$DW$160, DW_AT_TI_symbol_name("TimerLoadSet64")
    2155                            .dwattr $C$DW$160, DW_AT_external
    2156                            .dwattr $C$DW$160, DW_AT_TI_begin_file("C:/TI_CodeComposer/StellarisWare-LM3S1968/driverlib/ti
    2157                            .dwattr $C$DW$160, DW_AT_TI_begin_line(0x34f)
    2158                            .dwattr $C$DW$160, DW_AT_TI_begin_column(0x01)
    2159                            .dwattr $C$DW$160, DW_AT_decl_file("C:/TI_CodeComposer/StellarisWare-LM3S1968/driverlib/timer.
    2160                            .dwattr $C$DW$160, DW_AT_decl_line(0x34f)
    2161                            .dwattr $C$DW$160, DW_AT_decl_column(0x01)
    2162                            .dwattr $C$DW$160, DW_AT_TI_max_frame_size(0x10)
    2163                            .dwpsn  file "C:/TI_CodeComposer/StellarisWare-LM3S1968/driverlib/timer.c",line 848,column 1,i
    2164                    
    2165                            .dwfde $C$DW$CIE, TimerLoadSet64
    2166                    $C$DW$161       .dwtag  DW_TAG_formal_parameter
    2167                            .dwattr $C$DW$161, DW_AT_name("ulBase")
    2168                            .dwattr $C$DW$161, DW_AT_TI_symbol_name("ulBase")
    2169                            .dwattr $C$DW$161, DW_AT_type(*$C$DW$T$13)
    2170                            .dwattr $C$DW$161, DW_AT_location[DW_OP_reg0]
    2171                    
    2172                    $C$DW$162       .dwtag  DW_TAG_formal_parameter
    2173                            .dwattr $C$DW$162, DW_AT_name("ullValue")
    2174                            .dwattr $C$DW$162, DW_AT_TI_symbol_name("ullValue")
    2175                            .dwattr $C$DW$162, DW_AT_type(*$C$DW$T$15)
    2176                            .dwattr $C$DW$162, DW_AT_location[DW_OP_reg2]
    2177                    
    2178                    
    2179                    ;*****************************************************************************
    2180                    ;* FUNCTION NAME: TimerLoadSet64                                             *
    2181                    ;*                                                                           *
    2182                    ;*   Regs Modified     : A1,A2,SP,SR                                         *
    2183                    ;*   Regs Used         : A1,A2,A3,A4,SP,LR,SR                                *
    2184                    ;*   Local Frame Size  : 0 Args + 16 Auto + 0 Save = 16 byte                 *
    2185                    ;*****************************************************************************
    2186 000002e8           TimerLoadSet64:
    2187                    ;* --------------------------------------------------------------------------*
    2188                            .dwcfi  cfa_offset, 0
    2189 000002e8 0D10F1AD          SUB       SP, SP, #16           ; [DPU_3_PIPE]  ; [KEEP 32-BIT INS]
    2190                            .dwcfi  cfa_offset, 16
    2191                    $C$DW$163       .dwtag  DW_TAG_variable
    2192                            .dwattr $C$DW$163, DW_AT_name("ulBase")
    2193                            .dwattr $C$DW$163, DW_AT_TI_symbol_name("ulBase")
    2194                            .dwattr $C$DW$163, DW_AT_type(*$C$DW$T$13)
    2195                            .dwattr $C$DW$163, DW_AT_location[DW_OP_breg13 0]
    2196                    
    2197                    $C$DW$164       .dwtag  DW_TAG_variable
    2198                            .dwattr $C$DW$164, DW_AT_name("ullValue")
TI ARM Assembler PC v15.12.1 Wed Apr 19 15:29:26 2017

Tools Copyright (c) 1996-2015 Texas Instruments Incorporated
Task_TimeOfDay.asm                                                   PAGE   41

    2199                            .dwattr $C$DW$164, DW_AT_TI_symbol_name("ullValue")
    2200                            .dwattr $C$DW$164, DW_AT_type(*$C$DW$T$15)
    2201                            .dwattr $C$DW$164, DW_AT_location[DW_OP_breg13 8]
    2202                    
    2203 000002ec 9000              STR       A1, [SP, #0]          ; [DPU_3_PIPE] |848|  ; [ORIG 16-BIT INS]
    2204 000002ee A902              ADD       A2, SP, #8            ; [DPU_3_PIPE] |848|  ; [ORIG 16-BIT INS]
    2205 000002f0 000CE881          STMIA     A2, {A3,A4}           ; [DPU_3_PIPE] |848|  ; [KEEP 32-BIT INS]
    2206                            .dwpsn  file "C:/TI_CodeComposer/StellarisWare-LM3S1968/driverlib/timer.c",line 859,column 5,i
    2207 000002f4 A802              ADD       A1, SP, #8            ; [DPU_3_PIPE] |859|  ; [ORIG 16-BIT INS]
    2208 000002f6 C803              LDMIA     A1, {A1,A2}           ; [DPU_3_PIPE] |859|  ; [ORIG 16-BIT INS]
    2209 000002f8 9800              LDR       A1, [SP, #0]          ; [DPU_3_PIPE] |859|  ; [ORIG 16-BIT INS]
    2210 000002fa 1C09              MOVS      A2, A2                ; [DPU_3_PIPE] |859|  ; [ORIG 16-BIT INS]
    2211 000002fc 62C1              STR       A2, [A1, #44]         ; [DPU_3_PIPE] |859|  ; [ORIG 16-BIT INS]
    2212                            .dwpsn  file "C:/TI_CodeComposer/StellarisWare-LM3S1968/driverlib/timer.c",line 860,column 5,i
    2213 000002fe 9900              LDR       A2, [SP, #0]          ; [DPU_3_PIPE] |860|  ; [ORIG 16-BIT INS]
    2214 00000300 9802              LDR       A1, [SP, #8]          ; [DPU_3_PIPE] |860|  ; [ORIG 16-BIT INS]
    2215 00000302 6288              STR       A1, [A2, #40]         ; [DPU_3_PIPE] |860|  ; [ORIG 16-BIT INS]
    2216                            .dwpsn  file "C:/TI_CodeComposer/StellarisWare-LM3S1968/driverlib/timer.c",line 861,column 1,i
    2217 00000304 B004              ADD       SP, SP, #16           ; [DPU_3_PIPE]  ; [ORIG 16-BIT INS]
    2218                            .dwcfi  cfa_offset, 0
    2219                    $C$DW$165       .dwtag  DW_TAG_TI_branch
    2220                            .dwattr $C$DW$165, DW_AT_low_pc(0x00)
    2221                            .dwattr $C$DW$165, DW_AT_TI_return
    2222                    
    2223 00000306 4770              BX        LR                    ; [DPU_3_PIPE]  ; [ORIG 16-BIT INS]
    2224                            ; BRANCH OCCURS                  ; [] 
    2225                            .dwattr $C$DW$160, DW_AT_TI_end_file("C:/TI_CodeComposer/StellarisWare-LM3S1968/driverlib/time
    2226                            .dwattr $C$DW$160, DW_AT_TI_end_line(0x35d)
    2227                            .dwattr $C$DW$160, DW_AT_TI_end_column(0x01)
    2228                            .dwendentry
    2229                            .dwendtag $C$DW$160
    2230                    
    2231                    ;******************************************************************************
    2232                    ;* CONSTANT TABLE                                                             *
    2233                    ;******************************************************************************
    2234 00000308                   .sect   ".text"
    2235                            .align  4
    2236 00000308 FFFFFEFE  ||$C$CON3||:    .bits   -258,32
    2237 0000030c                   .sect   ".text"
    2238                            .clink
    2239                            .thumbfunc TimerLoadGet64
    2240 0000030c                   .thumb
    2241                            .global TimerLoadGet64
    2242                    
    2243                    $C$DW$166       .dwtag  DW_TAG_subprogram
    2244                            .dwattr $C$DW$166, DW_AT_name("TimerLoadGet64")
    2245                            .dwattr $C$DW$166, DW_AT_low_pc(TimerLoadGet64)
    2246                            .dwattr $C$DW$166, DW_AT_high_pc(0x00)
    2247                            .dwattr $C$DW$166, DW_AT_TI_symbol_name("TimerLoadGet64")
    2248                            .dwattr $C$DW$166, DW_AT_external
    2249                            .dwattr $C$DW$166, DW_AT_type(*$C$DW$T$15)
    2250                            .dwattr $C$DW$166, DW_AT_TI_begin_file("C:/TI_CodeComposer/StellarisWare-LM3S1968/driverlib/ti
    2251                            .dwattr $C$DW$166, DW_AT_TI_begin_line(0x36c)
    2252                            .dwattr $C$DW$166, DW_AT_TI_begin_column(0x01)
    2253                            .dwattr $C$DW$166, DW_AT_decl_file("C:/TI_CodeComposer/StellarisWare-LM3S1968/driverlib/timer.
TI ARM Assembler PC v15.12.1 Wed Apr 19 15:29:26 2017

Tools Copyright (c) 1996-2015 Texas Instruments Incorporated
Task_TimeOfDay.asm                                                   PAGE   42

    2254                            .dwattr $C$DW$166, DW_AT_decl_line(0x36c)
    2255                            .dwattr $C$DW$166, DW_AT_decl_column(0x01)
    2256                            .dwattr $C$DW$166, DW_AT_TI_max_frame_size(0x10)
    2257                            .dwpsn  file "C:/TI_CodeComposer/StellarisWare-LM3S1968/driverlib/timer.c",line 877,column 1,i
    2258                    
    2259                            .dwfde $C$DW$CIE, TimerLoadGet64
    2260                    $C$DW$167       .dwtag  DW_TAG_formal_parameter
    2261                            .dwattr $C$DW$167, DW_AT_name("ulBase")
    2262                            .dwattr $C$DW$167, DW_AT_TI_symbol_name("ulBase")
    2263                            .dwattr $C$DW$167, DW_AT_type(*$C$DW$T$13)
    2264                            .dwattr $C$DW$167, DW_AT_location[DW_OP_reg0]
    2265                    
    2266                    
    2267                    ;*****************************************************************************
    2268                    ;* FUNCTION NAME: TimerLoadGet64                                             *
    2269                    ;*                                                                           *
    2270                    ;*   Regs Modified     : A1,A2,A3,A4,SP,SR                                   *
    2271                    ;*   Regs Used         : A1,A2,A3,A4,SP,LR,SR                                *
    2272                    ;*   Local Frame Size  : 0 Args + 16 Auto + 0 Save = 16 byte                 *
    2273                    ;*****************************************************************************
    2274 0000030c           TimerLoadGet64:
    2275                    ;* --------------------------------------------------------------------------*
    2276                            .dwcfi  cfa_offset, 0
    2277 0000030c 0D10F1AD          SUB       SP, SP, #16           ; [DPU_3_PIPE]  ; [KEEP 32-BIT INS]
    2278                            .dwcfi  cfa_offset, 16
    2279                    $C$DW$168       .dwtag  DW_TAG_variable
    2280                            .dwattr $C$DW$168, DW_AT_name("ulBase")
    2281                            .dwattr $C$DW$168, DW_AT_TI_symbol_name("ulBase")
    2282                            .dwattr $C$DW$168, DW_AT_type(*$C$DW$T$13)
    2283                            .dwattr $C$DW$168, DW_AT_location[DW_OP_breg13 0]
    2284                    
    2285                    $C$DW$169       .dwtag  DW_TAG_variable
    2286                            .dwattr $C$DW$169, DW_AT_name("ulHigh1")
    2287                            .dwattr $C$DW$169, DW_AT_TI_symbol_name("ulHigh1")
    2288                            .dwattr $C$DW$169, DW_AT_type(*$C$DW$T$13)
    2289                            .dwattr $C$DW$169, DW_AT_location[DW_OP_breg13 4]
    2290                    
    2291                    $C$DW$170       .dwtag  DW_TAG_variable
    2292                            .dwattr $C$DW$170, DW_AT_name("ulHigh2")
    2293                            .dwattr $C$DW$170, DW_AT_TI_symbol_name("ulHigh2")
    2294                            .dwattr $C$DW$170, DW_AT_type(*$C$DW$T$13)
    2295                            .dwattr $C$DW$170, DW_AT_location[DW_OP_breg13 8]
    2296                    
    2297                    $C$DW$171       .dwtag  DW_TAG_variable
    2298                            .dwattr $C$DW$171, DW_AT_name("ulLow")
    2299                            .dwattr $C$DW$171, DW_AT_TI_symbol_name("ulLow")
    2300                            .dwattr $C$DW$171, DW_AT_type(*$C$DW$T$13)
    2301                            .dwattr $C$DW$171, DW_AT_location[DW_OP_breg13 12]
    2302                    
    2303 00000310 9000              STR       A1, [SP, #0]          ; [DPU_3_PIPE] |877|  ; [ORIG 16-BIT INS]
    2304                    ;* --------------------------------------------------------------------------*
    2305                    ;*   BEGIN LOOP ||$C$L27||
    2306                    ;*
    2307                    ;*   Loop source line                : 892
    2308                    ;*   Loop closing brace source line  : 897
TI ARM Assembler PC v15.12.1 Wed Apr 19 15:29:26 2017

Tools Copyright (c) 1996-2015 Texas Instruments Incorporated
Task_TimeOfDay.asm                                                   PAGE   43

    2309                    ;*   Known Minimum Trip Count        : 1
    2310                    ;*   Known Maximum Trip Count        : 4294967295
    2311                    ;*   Known Max Trip Count Factor     : 1
    2312                    ;* --------------------------------------------------------------------------*
    2313 00000312           ||$C$L27||:    
    2314                            .dwpsn  file "C:/TI_CodeComposer/StellarisWare-LM3S1968/driverlib/timer.c",line 894,column 9,i
    2315 00000312 9800              LDR       A1, [SP, #0]          ; [DPU_3_PIPE] |894|  ; [ORIG 16-BIT INS]
    2316 00000314 6AC0              LDR       A1, [A1, #44]         ; [DPU_3_PIPE] |894|  ; [ORIG 16-BIT INS]
    2317 00000316 9001              STR       A1, [SP, #4]          ; [DPU_3_PIPE] |894|  ; [ORIG 16-BIT INS]
    2318                            .dwpsn  file "C:/TI_CodeComposer/StellarisWare-LM3S1968/driverlib/timer.c",line 895,column 9,i
    2319 00000318 9800              LDR       A1, [SP, #0]          ; [DPU_3_PIPE] |895|  ; [ORIG 16-BIT INS]
    2320 0000031a 6A80              LDR       A1, [A1, #40]         ; [DPU_3_PIPE] |895|  ; [ORIG 16-BIT INS]
    2321 0000031c 9003              STR       A1, [SP, #12]         ; [DPU_3_PIPE] |895|  ; [ORIG 16-BIT INS]
    2322                            .dwpsn  file "C:/TI_CodeComposer/StellarisWare-LM3S1968/driverlib/timer.c",line 896,column 9,i
    2323 0000031e 9800              LDR       A1, [SP, #0]          ; [DPU_3_PIPE] |896|  ; [ORIG 16-BIT INS]
    2324 00000320 6AC0              LDR       A1, [A1, #44]         ; [DPU_3_PIPE] |896|  ; [ORIG 16-BIT INS]
    2325 00000322 9002              STR       A1, [SP, #8]          ; [DPU_3_PIPE] |896|  ; [ORIG 16-BIT INS]
    2326                            .dwpsn  file "C:/TI_CodeComposer/StellarisWare-LM3S1968/driverlib/timer.c",line 898,column 11,
    2327 00000324 9901              LDR       A2, [SP, #4]          ; [DPU_3_PIPE] |898|  ; [ORIG 16-BIT INS]
    2328 00000326 9802              LDR       A1, [SP, #8]          ; [DPU_3_PIPE] |898|  ; [ORIG 16-BIT INS]
    2329 00000328 4288              CMP       A1, A2                ; [DPU_3_PIPE] |898|  ; [ORIG 16-BIT INS]
    2330 0000032a D1F2              BNE       ||$C$L27||            ; [DPU_3_PIPE] |898|  ; [ORIG 16-BIT INS]
    2331                            ; BRANCHCC OCCURS {||$C$L27||}   ; [] |898| 
    2332                    ;* --------------------------------------------------------------------------*
    2333                            .dwpsn  file "C:/TI_CodeComposer/StellarisWare-LM3S1968/driverlib/timer.c",line 903,column 5,i
    2334 0000032c 9A01              LDR       A3, [SP, #4]          ; [DPU_3_PIPE] |903|  ; [ORIG 16-BIT INS]
    2335 0000032e 9803              LDR       A1, [SP, #12]         ; [DPU_3_PIPE] |903|  ; [ORIG 16-BIT INS]
    2336 00000330 2300              MOVS      A4, #0                ; [DPU_3_PIPE] |903|  ; [ORIG 16-BIT INS]
    2337 00000332 2100              MOVS      A2, #0                ; [DPU_3_PIPE] |903|  ; [ORIG 16-BIT INS]
    2338 00000334 0012              LSLS      A3, A3, #0            ; [DPU_3_PIPE] |903|  ; [ORIG 16-BIT INS]
    2339 00000336 4318              ORRS      A1, A1, A4            ; [DPU_3_PIPE] |903|  ; [ORIG 16-BIT INS]
    2340 00000338 4311              ORRS      A2, A2, A3            ; [DPU_3_PIPE] |903|  ; [ORIG 16-BIT INS]
    2341                            .dwpsn  file "C:/TI_CodeComposer/StellarisWare-LM3S1968/driverlib/timer.c",line 904,column 1,i
    2342 0000033a B004              ADD       SP, SP, #16           ; [DPU_3_PIPE]  ; [ORIG 16-BIT INS]
    2343                            .dwcfi  cfa_offset, 0
    2344                    $C$DW$172       .dwtag  DW_TAG_TI_branch
    2345                            .dwattr $C$DW$172, DW_AT_low_pc(0x00)
    2346                            .dwattr $C$DW$172, DW_AT_TI_return
    2347                    
    2348 0000033c 4770              BX        LR                    ; [DPU_3_PIPE]  ; [ORIG 16-BIT INS]
    2349                            ; BRANCH OCCURS                  ; [] 
    2350                            .dwattr $C$DW$166, DW_AT_TI_end_file("C:/TI_CodeComposer/StellarisWare-LM3S1968/driverlib/time
    2351                            .dwattr $C$DW$166, DW_AT_TI_end_line(0x388)
    2352                            .dwattr $C$DW$166, DW_AT_TI_end_column(0x01)
    2353                            .dwendentry
    2354                            .dwendtag $C$DW$166
    2355                    
    2356 0000033e                   .sect   ".text"
    2357                            .clink
    2358                            .thumbfunc TimerValueGet
    2359 0000033e                   .thumb
    2360                            .global TimerValueGet
    2361                    
    2362                    $C$DW$173       .dwtag  DW_TAG_subprogram
    2363                            .dwattr $C$DW$173, DW_AT_name("TimerValueGet")
TI ARM Assembler PC v15.12.1 Wed Apr 19 15:29:26 2017

Tools Copyright (c) 1996-2015 Texas Instruments Incorporated
Task_TimeOfDay.asm                                                   PAGE   44

    2364                            .dwattr $C$DW$173, DW_AT_low_pc(TimerValueGet)
    2365                            .dwattr $C$DW$173, DW_AT_high_pc(0x00)
    2366                            .dwattr $C$DW$173, DW_AT_TI_symbol_name("TimerValueGet")
    2367                            .dwattr $C$DW$173, DW_AT_external
    2368                            .dwattr $C$DW$173, DW_AT_type(*$C$DW$T$13)
    2369                            .dwattr $C$DW$173, DW_AT_TI_begin_file("C:/TI_CodeComposer/StellarisWare-LM3S1968/driverlib/ti
    2370                            .dwattr $C$DW$173, DW_AT_TI_begin_line(0x39d)
    2371                            .dwattr $C$DW$173, DW_AT_TI_begin_column(0x01)
    2372                            .dwattr $C$DW$173, DW_AT_decl_file("C:/TI_CodeComposer/StellarisWare-LM3S1968/driverlib/timer.
    2373                            .dwattr $C$DW$173, DW_AT_decl_line(0x39d)
    2374                            .dwattr $C$DW$173, DW_AT_decl_column(0x01)
    2375                            .dwattr $C$DW$173, DW_AT_TI_max_frame_size(0x08)
    2376                            .dwpsn  file "C:/TI_CodeComposer/StellarisWare-LM3S1968/driverlib/timer.c",line 926,column 1,i
    2377                    
    2378                            .dwfde $C$DW$CIE, TimerValueGet
    2379                    $C$DW$174       .dwtag  DW_TAG_formal_parameter
    2380                            .dwattr $C$DW$174, DW_AT_name("ulBase")
    2381                            .dwattr $C$DW$174, DW_AT_TI_symbol_name("ulBase")
    2382                            .dwattr $C$DW$174, DW_AT_type(*$C$DW$T$13)
    2383                            .dwattr $C$DW$174, DW_AT_location[DW_OP_reg0]
    2384                    
    2385                    $C$DW$175       .dwtag  DW_TAG_formal_parameter
    2386                            .dwattr $C$DW$175, DW_AT_name("ulTimer")
    2387                            .dwattr $C$DW$175, DW_AT_TI_symbol_name("ulTimer")
    2388                            .dwattr $C$DW$175, DW_AT_type(*$C$DW$T$13)
    2389                            .dwattr $C$DW$175, DW_AT_location[DW_OP_reg1]
    2390                    
    2391                    
    2392                    ;*****************************************************************************
    2393                    ;* FUNCTION NAME: TimerValueGet                                              *
    2394                    ;*                                                                           *
    2395                    ;*   Regs Modified     : A1,SP,SR                                            *
    2396                    ;*   Regs Used         : A1,A2,SP,LR,SR                                      *
    2397                    ;*   Local Frame Size  : 0 Args + 8 Auto + 0 Save = 8 byte                   *
    2398                    ;*****************************************************************************
    2399 0000033e           TimerValueGet:
    2400                    ;* --------------------------------------------------------------------------*
    2401                            .dwcfi  cfa_offset, 0
    2402 0000033e 0D08F1AD          SUB       SP, SP, #8            ; [DPU_3_PIPE]  ; [KEEP 32-BIT INS]
    2403                            .dwcfi  cfa_offset, 8
    2404                    $C$DW$176       .dwtag  DW_TAG_variable
    2405                            .dwattr $C$DW$176, DW_AT_name("ulBase")
    2406                            .dwattr $C$DW$176, DW_AT_TI_symbol_name("ulBase")
    2407                            .dwattr $C$DW$176, DW_AT_type(*$C$DW$T$13)
    2408                            .dwattr $C$DW$176, DW_AT_location[DW_OP_breg13 0]
    2409                    
    2410                    $C$DW$177       .dwtag  DW_TAG_variable
    2411                            .dwattr $C$DW$177, DW_AT_name("ulTimer")
    2412                            .dwattr $C$DW$177, DW_AT_TI_symbol_name("ulTimer")
    2413                            .dwattr $C$DW$177, DW_AT_type(*$C$DW$T$13)
    2414                            .dwattr $C$DW$177, DW_AT_location[DW_OP_breg13 4]
    2415                    
    2416 00000342 9101              STR       A2, [SP, #4]          ; [DPU_3_PIPE] |926|  ; [ORIG 16-BIT INS]
    2417 00000344 9000              STR       A1, [SP, #0]          ; [DPU_3_PIPE] |926|  ; [ORIG 16-BIT INS]
    2418                            .dwpsn  file "C:/TI_CodeComposer/StellarisWare-LM3S1968/driverlib/timer.c",line 936,column 5,i
TI ARM Assembler PC v15.12.1 Wed Apr 19 15:29:26 2017

Tools Copyright (c) 1996-2015 Texas Instruments Incorporated
Task_TimeOfDay.asm                                                   PAGE   45

    2419 00000346 9801              LDR       A1, [SP, #4]          ; [DPU_3_PIPE] |936|  ; [ORIG 16-BIT INS]
    2420 00000348 28FF              CMP       A1, #255              ; [DPU_3_PIPE] |936|  ; [ORIG 16-BIT INS]
    2421 0000034a D102              BNE       ||$C$L28||            ; [DPU_3_PIPE] |936|  ; [ORIG 16-BIT INS]
    2422                            ; BRANCHCC OCCURS {||$C$L28||}   ; [] |936| 
    2423                    ;* --------------------------------------------------------------------------*
    2424 0000034c 9800              LDR       A1, [SP, #0]          ; [DPU_3_PIPE] |936|  ; [ORIG 16-BIT INS]
    2425 0000034e 6C80              LDR       A1, [A1, #72]         ; [DPU_3_PIPE] |936|  ; [ORIG 16-BIT INS]
    2426 00000350 E001              B         ||$C$L29||            ; [DPU_3_PIPE] |936|  ; [ORIG 16-BIT INS]
    2427                            ; BRANCH OCCURS {||$C$L29||}     ; [] |936| 
    2428                    ;* --------------------------------------------------------------------------*
    2429 00000352           ||$C$L28||:    
    2430 00000352 9800              LDR       A1, [SP, #0]          ; [DPU_3_PIPE] |936|  ; [ORIG 16-BIT INS]
    2431 00000354 6CC0              LDR       A1, [A1, #76]         ; [DPU_3_PIPE] |936|  ; [ORIG 16-BIT INS]
    2432                    ;* --------------------------------------------------------------------------*
    2433 00000356           ||$C$L29||:    
    2434                            .dwpsn  file "C:/TI_CodeComposer/StellarisWare-LM3S1968/driverlib/timer.c",line 938,column 1,i
    2435 00000356 B002              ADD       SP, SP, #8            ; [DPU_3_PIPE]  ; [ORIG 16-BIT INS]
    2436                            .dwcfi  cfa_offset, 0
    2437                    $C$DW$178       .dwtag  DW_TAG_TI_branch
    2438                            .dwattr $C$DW$178, DW_AT_low_pc(0x00)
    2439                            .dwattr $C$DW$178, DW_AT_TI_return
    2440                    
    2441 00000358 4770              BX        LR                    ; [DPU_3_PIPE]  ; [ORIG 16-BIT INS]
    2442                            ; BRANCH OCCURS                  ; [] 
    2443                            .dwattr $C$DW$173, DW_AT_TI_end_file("C:/TI_CodeComposer/StellarisWare-LM3S1968/driverlib/time
    2444                            .dwattr $C$DW$173, DW_AT_TI_end_line(0x3aa)
    2445                            .dwattr $C$DW$173, DW_AT_TI_end_column(0x01)
    2446                            .dwendentry
    2447                            .dwendtag $C$DW$173
    2448                    
    2449 0000035a                   .sect   ".text"
    2450                            .clink
    2451                            .thumbfunc TimerValueGet64
    2452 0000035a                   .thumb
    2453                            .global TimerValueGet64
    2454                    
    2455                    $C$DW$179       .dwtag  DW_TAG_subprogram
    2456                            .dwattr $C$DW$179, DW_AT_name("TimerValueGet64")
    2457                            .dwattr $C$DW$179, DW_AT_low_pc(TimerValueGet64)
    2458                            .dwattr $C$DW$179, DW_AT_high_pc(0x00)
    2459                            .dwattr $C$DW$179, DW_AT_TI_symbol_name("TimerValueGet64")
    2460                            .dwattr $C$DW$179, DW_AT_external
    2461                            .dwattr $C$DW$179, DW_AT_type(*$C$DW$T$15)
    2462                            .dwattr $C$DW$179, DW_AT_TI_begin_file("C:/TI_CodeComposer/StellarisWare-LM3S1968/driverlib/ti
    2463                            .dwattr $C$DW$179, DW_AT_TI_begin_line(0x3b8)
    2464                            .dwattr $C$DW$179, DW_AT_TI_begin_column(0x01)
    2465                            .dwattr $C$DW$179, DW_AT_decl_file("C:/TI_CodeComposer/StellarisWare-LM3S1968/driverlib/timer.
    2466                            .dwattr $C$DW$179, DW_AT_decl_line(0x3b8)
    2467                            .dwattr $C$DW$179, DW_AT_decl_column(0x01)
    2468                            .dwattr $C$DW$179, DW_AT_TI_max_frame_size(0x10)
    2469                            .dwpsn  file "C:/TI_CodeComposer/StellarisWare-LM3S1968/driverlib/timer.c",line 953,column 1,i
    2470                    
    2471                            .dwfde $C$DW$CIE, TimerValueGet64
    2472                    $C$DW$180       .dwtag  DW_TAG_formal_parameter
    2473                            .dwattr $C$DW$180, DW_AT_name("ulBase")
TI ARM Assembler PC v15.12.1 Wed Apr 19 15:29:26 2017

Tools Copyright (c) 1996-2015 Texas Instruments Incorporated
Task_TimeOfDay.asm                                                   PAGE   46

    2474                            .dwattr $C$DW$180, DW_AT_TI_symbol_name("ulBase")
    2475                            .dwattr $C$DW$180, DW_AT_type(*$C$DW$T$13)
    2476                            .dwattr $C$DW$180, DW_AT_location[DW_OP_reg0]
    2477                    
    2478                    
    2479                    ;*****************************************************************************
    2480                    ;* FUNCTION NAME: TimerValueGet64                                            *
    2481                    ;*                                                                           *
    2482                    ;*   Regs Modified     : A1,A2,A3,A4,SP,SR                                   *
    2483                    ;*   Regs Used         : A1,A2,A3,A4,SP,LR,SR                                *
    2484                    ;*   Local Frame Size  : 0 Args + 16 Auto + 0 Save = 16 byte                 *
    2485                    ;*****************************************************************************
    2486 0000035a           TimerValueGet64:
    2487                    ;* --------------------------------------------------------------------------*
    2488                            .dwcfi  cfa_offset, 0
    2489 0000035a 0D10F1AD          SUB       SP, SP, #16           ; [DPU_3_PIPE]  ; [KEEP 32-BIT INS]
    2490                            .dwcfi  cfa_offset, 16
    2491                    $C$DW$181       .dwtag  DW_TAG_variable
    2492                            .dwattr $C$DW$181, DW_AT_name("ulBase")
    2493                            .dwattr $C$DW$181, DW_AT_TI_symbol_name("ulBase")
    2494                            .dwattr $C$DW$181, DW_AT_type(*$C$DW$T$13)
    2495                            .dwattr $C$DW$181, DW_AT_location[DW_OP_breg13 0]
    2496                    
    2497                    $C$DW$182       .dwtag  DW_TAG_variable
    2498                            .dwattr $C$DW$182, DW_AT_name("ulHigh1")
    2499                            .dwattr $C$DW$182, DW_AT_TI_symbol_name("ulHigh1")
    2500                            .dwattr $C$DW$182, DW_AT_type(*$C$DW$T$13)
    2501                            .dwattr $C$DW$182, DW_AT_location[DW_OP_breg13 4]
    2502                    
    2503                    $C$DW$183       .dwtag  DW_TAG_variable
    2504                            .dwattr $C$DW$183, DW_AT_name("ulHigh2")
    2505                            .dwattr $C$DW$183, DW_AT_TI_symbol_name("ulHigh2")
    2506                            .dwattr $C$DW$183, DW_AT_type(*$C$DW$T$13)
    2507                            .dwattr $C$DW$183, DW_AT_location[DW_OP_breg13 8]
    2508                    
    2509                    $C$DW$184       .dwtag  DW_TAG_variable
    2510                            .dwattr $C$DW$184, DW_AT_name("ulLow")
    2511                            .dwattr $C$DW$184, DW_AT_TI_symbol_name("ulLow")
    2512                            .dwattr $C$DW$184, DW_AT_type(*$C$DW$T$13)
    2513                            .dwattr $C$DW$184, DW_AT_location[DW_OP_breg13 12]
    2514                    
    2515 0000035e 9000              STR       A1, [SP, #0]          ; [DPU_3_PIPE] |953|  ; [ORIG 16-BIT INS]
    2516                    ;* --------------------------------------------------------------------------*
    2517                    ;*   BEGIN LOOP ||$C$L30||
    2518                    ;*
    2519                    ;*   Loop source line                : 968
    2520                    ;*   Loop closing brace source line  : 973
    2521                    ;*   Known Minimum Trip Count        : 1
    2522                    ;*   Known Maximum Trip Count        : 4294967295
    2523                    ;*   Known Max Trip Count Factor     : 1
    2524                    ;* --------------------------------------------------------------------------*
    2525 00000360           ||$C$L30||:    
    2526                            .dwpsn  file "C:/TI_CodeComposer/StellarisWare-LM3S1968/driverlib/timer.c",line 970,column 9,i
    2527 00000360 9800              LDR       A1, [SP, #0]          ; [DPU_3_PIPE] |970|  ; [ORIG 16-BIT INS]
    2528 00000362 6CC0              LDR       A1, [A1, #76]         ; [DPU_3_PIPE] |970|  ; [ORIG 16-BIT INS]
TI ARM Assembler PC v15.12.1 Wed Apr 19 15:29:26 2017

Tools Copyright (c) 1996-2015 Texas Instruments Incorporated
Task_TimeOfDay.asm                                                   PAGE   47

    2529 00000364 9001              STR       A1, [SP, #4]          ; [DPU_3_PIPE] |970|  ; [ORIG 16-BIT INS]
    2530                            .dwpsn  file "C:/TI_CodeComposer/StellarisWare-LM3S1968/driverlib/timer.c",line 971,column 9,i
    2531 00000366 9800              LDR       A1, [SP, #0]          ; [DPU_3_PIPE] |971|  ; [ORIG 16-BIT INS]
    2532 00000368 6C80              LDR       A1, [A1, #72]         ; [DPU_3_PIPE] |971|  ; [ORIG 16-BIT INS]
    2533 0000036a 9003              STR       A1, [SP, #12]         ; [DPU_3_PIPE] |971|  ; [ORIG 16-BIT INS]
    2534                            .dwpsn  file "C:/TI_CodeComposer/StellarisWare-LM3S1968/driverlib/timer.c",line 972,column 9,i
    2535 0000036c 9800              LDR       A1, [SP, #0]          ; [DPU_3_PIPE] |972|  ; [ORIG 16-BIT INS]
    2536 0000036e 6CC0              LDR       A1, [A1, #76]         ; [DPU_3_PIPE] |972|  ; [ORIG 16-BIT INS]
    2537 00000370 9002              STR       A1, [SP, #8]          ; [DPU_3_PIPE] |972|  ; [ORIG 16-BIT INS]
    2538                            .dwpsn  file "C:/TI_CodeComposer/StellarisWare-LM3S1968/driverlib/timer.c",line 974,column 11,
    2539 00000372 9901              LDR       A2, [SP, #4]          ; [DPU_3_PIPE] |974|  ; [ORIG 16-BIT INS]
    2540 00000374 9802              LDR       A1, [SP, #8]          ; [DPU_3_PIPE] |974|  ; [ORIG 16-BIT INS]
    2541 00000376 4288              CMP       A1, A2                ; [DPU_3_PIPE] |974|  ; [ORIG 16-BIT INS]
    2542 00000378 D1F2              BNE       ||$C$L30||            ; [DPU_3_PIPE] |974|  ; [ORIG 16-BIT INS]
    2543                            ; BRANCHCC OCCURS {||$C$L30||}   ; [] |974| 
    2544                    ;* --------------------------------------------------------------------------*
    2545                            .dwpsn  file "C:/TI_CodeComposer/StellarisWare-LM3S1968/driverlib/timer.c",line 979,column 5,i
    2546 0000037a 9A01              LDR       A3, [SP, #4]          ; [DPU_3_PIPE] |979|  ; [ORIG 16-BIT INS]
    2547 0000037c 9803              LDR       A1, [SP, #12]         ; [DPU_3_PIPE] |979|  ; [ORIG 16-BIT INS]
    2548 0000037e 2300              MOVS      A4, #0                ; [DPU_3_PIPE] |979|  ; [ORIG 16-BIT INS]
    2549 00000380 2100              MOVS      A2, #0                ; [DPU_3_PIPE] |979|  ; [ORIG 16-BIT INS]
    2550 00000382 0012              LSLS      A3, A3, #0            ; [DPU_3_PIPE] |979|  ; [ORIG 16-BIT INS]
    2551 00000384 4318              ORRS      A1, A1, A4            ; [DPU_3_PIPE] |979|  ; [ORIG 16-BIT INS]
    2552 00000386 4311              ORRS      A2, A2, A3            ; [DPU_3_PIPE] |979|  ; [ORIG 16-BIT INS]
    2553                            .dwpsn  file "C:/TI_CodeComposer/StellarisWare-LM3S1968/driverlib/timer.c",line 980,column 1,i
    2554 00000388 B004              ADD       SP, SP, #16           ; [DPU_3_PIPE]  ; [ORIG 16-BIT INS]
    2555                            .dwcfi  cfa_offset, 0
    2556                    $C$DW$185       .dwtag  DW_TAG_TI_branch
    2557                            .dwattr $C$DW$185, DW_AT_low_pc(0x00)
    2558                            .dwattr $C$DW$185, DW_AT_TI_return
    2559                    
    2560 0000038a 4770              BX        LR                    ; [DPU_3_PIPE]  ; [ORIG 16-BIT INS]
    2561                            ; BRANCH OCCURS                  ; [] 
    2562                            .dwattr $C$DW$179, DW_AT_TI_end_file("C:/TI_CodeComposer/StellarisWare-LM3S1968/driverlib/time
    2563                            .dwattr $C$DW$179, DW_AT_TI_end_line(0x3d4)
    2564                            .dwattr $C$DW$179, DW_AT_TI_end_column(0x01)
    2565                            .dwendentry
    2566                            .dwendtag $C$DW$179
    2567                    
    2568 0000038c                   .sect   ".text"
    2569                            .clink
    2570                            .thumbfunc TimerMatchSet
    2571 0000038c                   .thumb
    2572                            .global TimerMatchSet
    2573                    
    2574                    $C$DW$186       .dwtag  DW_TAG_subprogram
    2575                            .dwattr $C$DW$186, DW_AT_name("TimerMatchSet")
    2576                            .dwattr $C$DW$186, DW_AT_low_pc(TimerMatchSet)
    2577                            .dwattr $C$DW$186, DW_AT_high_pc(0x00)
    2578                            .dwattr $C$DW$186, DW_AT_TI_symbol_name("TimerMatchSet")
    2579                            .dwattr $C$DW$186, DW_AT_external
    2580                            .dwattr $C$DW$186, DW_AT_TI_begin_file("C:/TI_CodeComposer/StellarisWare-LM3S1968/driverlib/ti
    2581                            .dwattr $C$DW$186, DW_AT_TI_begin_line(0x3ee)
    2582                            .dwattr $C$DW$186, DW_AT_TI_begin_column(0x01)
    2583                            .dwattr $C$DW$186, DW_AT_decl_file("C:/TI_CodeComposer/StellarisWare-LM3S1968/driverlib/timer.
TI ARM Assembler PC v15.12.1 Wed Apr 19 15:29:26 2017

Tools Copyright (c) 1996-2015 Texas Instruments Incorporated
Task_TimeOfDay.asm                                                   PAGE   48

    2584                            .dwattr $C$DW$186, DW_AT_decl_line(0x3ee)
    2585                            .dwattr $C$DW$186, DW_AT_decl_column(0x01)
    2586                            .dwattr $C$DW$186, DW_AT_TI_max_frame_size(0x10)
    2587                            .dwpsn  file "C:/TI_CodeComposer/StellarisWare-LM3S1968/driverlib/timer.c",line 1008,column 1,
    2588                    
    2589                            .dwfde $C$DW$CIE, TimerMatchSet
    2590                    $C$DW$187       .dwtag  DW_TAG_formal_parameter
    2591                            .dwattr $C$DW$187, DW_AT_name("ulBase")
    2592                            .dwattr $C$DW$187, DW_AT_TI_symbol_name("ulBase")
    2593                            .dwattr $C$DW$187, DW_AT_type(*$C$DW$T$13)
    2594                            .dwattr $C$DW$187, DW_AT_location[DW_OP_reg0]
    2595                    
    2596                    $C$DW$188       .dwtag  DW_TAG_formal_parameter
    2597                            .dwattr $C$DW$188, DW_AT_name("ulTimer")
    2598                            .dwattr $C$DW$188, DW_AT_TI_symbol_name("ulTimer")
    2599                            .dwattr $C$DW$188, DW_AT_type(*$C$DW$T$13)
    2600                            .dwattr $C$DW$188, DW_AT_location[DW_OP_reg1]
    2601                    
    2602                    $C$DW$189       .dwtag  DW_TAG_formal_parameter
    2603                            .dwattr $C$DW$189, DW_AT_name("ulValue")
    2604                            .dwattr $C$DW$189, DW_AT_TI_symbol_name("ulValue")
    2605                            .dwattr $C$DW$189, DW_AT_type(*$C$DW$T$13)
    2606                            .dwattr $C$DW$189, DW_AT_location[DW_OP_reg2]
    2607                    
    2608                    
    2609                    ;*****************************************************************************
    2610                    ;* FUNCTION NAME: TimerMatchSet                                              *
    2611                    ;*                                                                           *
    2612                    ;*   Regs Modified     : A1,A2,SP,SR                                         *
    2613                    ;*   Regs Used         : A1,A2,A3,SP,LR,SR                                   *
    2614                    ;*   Local Frame Size  : 0 Args + 12 Auto + 0 Save = 12 byte                 *
    2615                    ;*****************************************************************************
    2616 0000038c           TimerMatchSet:
    2617                    ;* --------------------------------------------------------------------------*
    2618                            .dwcfi  cfa_offset, 0
    2619 0000038c 0D10F1AD          SUB       SP, SP, #16           ; [DPU_3_PIPE]  ; [KEEP 32-BIT INS]
    2620                            .dwcfi  cfa_offset, 16
    2621                    $C$DW$190       .dwtag  DW_TAG_variable
    2622                            .dwattr $C$DW$190, DW_AT_name("ulBase")
    2623                            .dwattr $C$DW$190, DW_AT_TI_symbol_name("ulBase")
    2624                            .dwattr $C$DW$190, DW_AT_type(*$C$DW$T$13)
    2625                            .dwattr $C$DW$190, DW_AT_location[DW_OP_breg13 0]
    2626                    
    2627                    $C$DW$191       .dwtag  DW_TAG_variable
    2628                            .dwattr $C$DW$191, DW_AT_name("ulTimer")
    2629                            .dwattr $C$DW$191, DW_AT_TI_symbol_name("ulTimer")
    2630                            .dwattr $C$DW$191, DW_AT_type(*$C$DW$T$13)
    2631                            .dwattr $C$DW$191, DW_AT_location[DW_OP_breg13 4]
    2632                    
    2633                    $C$DW$192       .dwtag  DW_TAG_variable
    2634                            .dwattr $C$DW$192, DW_AT_name("ulValue")
    2635                            .dwattr $C$DW$192, DW_AT_TI_symbol_name("ulValue")
    2636                            .dwattr $C$DW$192, DW_AT_type(*$C$DW$T$13)
    2637                            .dwattr $C$DW$192, DW_AT_location[DW_OP_breg13 8]
    2638                    
TI ARM Assembler PC v15.12.1 Wed Apr 19 15:29:26 2017

Tools Copyright (c) 1996-2015 Texas Instruments Incorporated
Task_TimeOfDay.asm                                                   PAGE   49

    2639 00000390 9202              STR       A3, [SP, #8]          ; [DPU_3_PIPE] |1008|  ; [ORIG 16-BIT INS]
    2640 00000392 9101              STR       A2, [SP, #4]          ; [DPU_3_PIPE] |1008|  ; [ORIG 16-BIT INS]
    2641 00000394 9000              STR       A1, [SP, #0]          ; [DPU_3_PIPE] |1008|  ; [ORIG 16-BIT INS]
    2642                            .dwpsn  file "C:/TI_CodeComposer/StellarisWare-LM3S1968/driverlib/timer.c",line 1019,column 5,
    2643 00000396 9801              LDR       A1, [SP, #4]          ; [DPU_3_PIPE] |1019|  ; [ORIG 16-BIT INS]
    2644 00000398 0FFFF010          TST       A1, #255              ; [DPU_3_PIPE] |1019|  ; [KEEP 32-BIT INS]
    2645 0000039c D002              BEQ       ||$C$L31||            ; [DPU_3_PIPE] |1019|  ; [ORIG 16-BIT INS]
    2646                            ; BRANCHCC OCCURS {||$C$L31||}   ; [] |1019| 
    2647                    ;* --------------------------------------------------------------------------*
    2648                            .dwpsn  file "C:/TI_CodeComposer/StellarisWare-LM3S1968/driverlib/timer.c",line 1021,column 9,
    2649 0000039e 9802              LDR       A1, [SP, #8]          ; [DPU_3_PIPE] |1021|  ; [ORIG 16-BIT INS]
    2650 000003a0 9900              LDR       A2, [SP, #0]          ; [DPU_3_PIPE] |1021|  ; [ORIG 16-BIT INS]
    2651 000003a2 6308              STR       A1, [A2, #48]         ; [DPU_3_PIPE] |1021|  ; [ORIG 16-BIT INS]
    2652                    ;* --------------------------------------------------------------------------*
    2653 000003a4           ||$C$L31||:    
    2654                            .dwpsn  file "C:/TI_CodeComposer/StellarisWare-LM3S1968/driverlib/timer.c",line 1027,column 5,
    2655 000003a4 9801              LDR       A1, [SP, #4]          ; [DPU_3_PIPE] |1027|  ; [ORIG 16-BIT INS]
    2656 000003a6 4F7FF410          TST       A1, #65280            ; [DPU_3_PIPE] |1027|  ; [KEEP 32-BIT INS]
    2657 000003aa D002              BEQ       ||$C$L32||            ; [DPU_3_PIPE] |1027|  ; [ORIG 16-BIT INS]
    2658                            ; BRANCHCC OCCURS {||$C$L32||}   ; [] |1027| 
    2659                    ;* --------------------------------------------------------------------------*
    2660                            .dwpsn  file "C:/TI_CodeComposer/StellarisWare-LM3S1968/driverlib/timer.c",line 1029,column 9,
    2661 000003ac 9802              LDR       A1, [SP, #8]          ; [DPU_3_PIPE] |1029|  ; [ORIG 16-BIT INS]
    2662 000003ae 9900              LDR       A2, [SP, #0]          ; [DPU_3_PIPE] |1029|  ; [ORIG 16-BIT INS]
    2663 000003b0 6348              STR       A1, [A2, #52]         ; [DPU_3_PIPE] |1029|  ; [ORIG 16-BIT INS]
    2664                            .dwpsn  file "C:/TI_CodeComposer/StellarisWare-LM3S1968/driverlib/timer.c",line 1031,column 1,
    2665                    ;* --------------------------------------------------------------------------*
    2666 000003b2           ||$C$L32||:    
    2667 000003b2 B004              ADD       SP, SP, #16           ; [DPU_3_PIPE]  ; [ORIG 16-BIT INS]
    2668                            .dwcfi  cfa_offset, 0
    2669                    $C$DW$193       .dwtag  DW_TAG_TI_branch
    2670                            .dwattr $C$DW$193, DW_AT_low_pc(0x00)
    2671                            .dwattr $C$DW$193, DW_AT_TI_return
    2672                    
    2673 000003b4 4770              BX        LR                    ; [DPU_3_PIPE]  ; [ORIG 16-BIT INS]
    2674                            ; BRANCH OCCURS                  ; [] 
    2675                            .dwattr $C$DW$186, DW_AT_TI_end_file("C:/TI_CodeComposer/StellarisWare-LM3S1968/driverlib/time
    2676                            .dwattr $C$DW$186, DW_AT_TI_end_line(0x407)
    2677                            .dwattr $C$DW$186, DW_AT_TI_end_column(0x01)
    2678                            .dwendentry
    2679                            .dwendtag $C$DW$186
    2680                    
    2681 000003b6                   .sect   ".text"
    2682                            .clink
    2683                            .thumbfunc TimerMatchGet
    2684 000003b6                   .thumb
    2685                            .global TimerMatchGet
    2686                    
    2687                    $C$DW$194       .dwtag  DW_TAG_subprogram
    2688                            .dwattr $C$DW$194, DW_AT_name("TimerMatchGet")
    2689                            .dwattr $C$DW$194, DW_AT_low_pc(TimerMatchGet)
    2690                            .dwattr $C$DW$194, DW_AT_high_pc(0x00)
    2691                            .dwattr $C$DW$194, DW_AT_TI_symbol_name("TimerMatchGet")
    2692                            .dwattr $C$DW$194, DW_AT_external
    2693                            .dwattr $C$DW$194, DW_AT_type(*$C$DW$T$13)
TI ARM Assembler PC v15.12.1 Wed Apr 19 15:29:26 2017

Tools Copyright (c) 1996-2015 Texas Instruments Incorporated
Task_TimeOfDay.asm                                                   PAGE   50

    2694                            .dwattr $C$DW$194, DW_AT_TI_begin_file("C:/TI_CodeComposer/StellarisWare-LM3S1968/driverlib/ti
    2695                            .dwattr $C$DW$194, DW_AT_TI_begin_line(0x41c)
    2696                            .dwattr $C$DW$194, DW_AT_TI_begin_column(0x01)
    2697                            .dwattr $C$DW$194, DW_AT_decl_file("C:/TI_CodeComposer/StellarisWare-LM3S1968/driverlib/timer.
    2698                            .dwattr $C$DW$194, DW_AT_decl_line(0x41c)
    2699                            .dwattr $C$DW$194, DW_AT_decl_column(0x01)
    2700                            .dwattr $C$DW$194, DW_AT_TI_max_frame_size(0x08)
    2701                            .dwpsn  file "C:/TI_CodeComposer/StellarisWare-LM3S1968/driverlib/timer.c",line 1053,column 1,
    2702                    
    2703                            .dwfde $C$DW$CIE, TimerMatchGet
    2704                    $C$DW$195       .dwtag  DW_TAG_formal_parameter
    2705                            .dwattr $C$DW$195, DW_AT_name("ulBase")
    2706                            .dwattr $C$DW$195, DW_AT_TI_symbol_name("ulBase")
    2707                            .dwattr $C$DW$195, DW_AT_type(*$C$DW$T$13)
    2708                            .dwattr $C$DW$195, DW_AT_location[DW_OP_reg0]
    2709                    
    2710                    $C$DW$196       .dwtag  DW_TAG_formal_parameter
    2711                            .dwattr $C$DW$196, DW_AT_name("ulTimer")
    2712                            .dwattr $C$DW$196, DW_AT_TI_symbol_name("ulTimer")
    2713                            .dwattr $C$DW$196, DW_AT_type(*$C$DW$T$13)
    2714                            .dwattr $C$DW$196, DW_AT_location[DW_OP_reg1]
    2715                    
    2716                    
    2717                    ;*****************************************************************************
    2718                    ;* FUNCTION NAME: TimerMatchGet                                              *
    2719                    ;*                                                                           *
    2720                    ;*   Regs Modified     : A1,SP,SR                                            *
    2721                    ;*   Regs Used         : A1,A2,SP,LR,SR                                      *
    2722                    ;*   Local Frame Size  : 0 Args + 8 Auto + 0 Save = 8 byte                   *
    2723                    ;*****************************************************************************
    2724 000003b6           TimerMatchGet:
    2725                    ;* --------------------------------------------------------------------------*
    2726                            .dwcfi  cfa_offset, 0
    2727 000003b6 0D08F1AD          SUB       SP, SP, #8            ; [DPU_3_PIPE]  ; [KEEP 32-BIT INS]
    2728                            .dwcfi  cfa_offset, 8
    2729                    $C$DW$197       .dwtag  DW_TAG_variable
    2730                            .dwattr $C$DW$197, DW_AT_name("ulBase")
    2731                            .dwattr $C$DW$197, DW_AT_TI_symbol_name("ulBase")
    2732                            .dwattr $C$DW$197, DW_AT_type(*$C$DW$T$13)
    2733                            .dwattr $C$DW$197, DW_AT_location[DW_OP_breg13 0]
    2734                    
    2735                    $C$DW$198       .dwtag  DW_TAG_variable
    2736                            .dwattr $C$DW$198, DW_AT_name("ulTimer")
    2737                            .dwattr $C$DW$198, DW_AT_TI_symbol_name("ulTimer")
    2738                            .dwattr $C$DW$198, DW_AT_type(*$C$DW$T$13)
    2739                            .dwattr $C$DW$198, DW_AT_location[DW_OP_breg13 4]
    2740                    
    2741 000003ba 9101              STR       A2, [SP, #4]          ; [DPU_3_PIPE] |1053|  ; [ORIG 16-BIT INS]
    2742 000003bc 9000              STR       A1, [SP, #0]          ; [DPU_3_PIPE] |1053|  ; [ORIG 16-BIT INS]
    2743                            .dwpsn  file "C:/TI_CodeComposer/StellarisWare-LM3S1968/driverlib/timer.c",line 1063,column 5,
    2744 000003be 9801              LDR       A1, [SP, #4]          ; [DPU_3_PIPE] |1063|  ; [ORIG 16-BIT INS]
    2745 000003c0 28FF              CMP       A1, #255              ; [DPU_3_PIPE] |1063|  ; [ORIG 16-BIT INS]
    2746 000003c2 D102              BNE       ||$C$L33||            ; [DPU_3_PIPE] |1063|  ; [ORIG 16-BIT INS]
    2747                            ; BRANCHCC OCCURS {||$C$L33||}   ; [] |1063| 
    2748                    ;* --------------------------------------------------------------------------*
TI ARM Assembler PC v15.12.1 Wed Apr 19 15:29:26 2017

Tools Copyright (c) 1996-2015 Texas Instruments Incorporated
Task_TimeOfDay.asm                                                   PAGE   51

    2749 000003c4 9800              LDR       A1, [SP, #0]          ; [DPU_3_PIPE] |1063|  ; [ORIG 16-BIT INS]
    2750 000003c6 6B00              LDR       A1, [A1, #48]         ; [DPU_3_PIPE] |1063|  ; [ORIG 16-BIT INS]
    2751 000003c8 E001              B         ||$C$L34||            ; [DPU_3_PIPE] |1063|  ; [ORIG 16-BIT INS]
    2752                            ; BRANCH OCCURS {||$C$L34||}     ; [] |1063| 
    2753                    ;* --------------------------------------------------------------------------*
    2754 000003ca           ||$C$L33||:    
    2755 000003ca 9800              LDR       A1, [SP, #0]          ; [DPU_3_PIPE] |1063|  ; [ORIG 16-BIT INS]
    2756 000003cc 6B40              LDR       A1, [A1, #52]         ; [DPU_3_PIPE] |1063|  ; [ORIG 16-BIT INS]
    2757                    ;* --------------------------------------------------------------------------*
    2758 000003ce           ||$C$L34||:    
    2759                            .dwpsn  file "C:/TI_CodeComposer/StellarisWare-LM3S1968/driverlib/timer.c",line 1065,column 1,
    2760 000003ce B002              ADD       SP, SP, #8            ; [DPU_3_PIPE]  ; [ORIG 16-BIT INS]
    2761                            .dwcfi  cfa_offset, 0
    2762                    $C$DW$199       .dwtag  DW_TAG_TI_branch
    2763                            .dwattr $C$DW$199, DW_AT_low_pc(0x00)
    2764                            .dwattr $C$DW$199, DW_AT_TI_return
    2765                    
    2766 000003d0 4770              BX        LR                    ; [DPU_3_PIPE]  ; [ORIG 16-BIT INS]
    2767                            ; BRANCH OCCURS                  ; [] 
    2768                            .dwattr $C$DW$194, DW_AT_TI_end_file("C:/TI_CodeComposer/StellarisWare-LM3S1968/driverlib/time
    2769                            .dwattr $C$DW$194, DW_AT_TI_end_line(0x429)
    2770                            .dwattr $C$DW$194, DW_AT_TI_end_column(0x01)
    2771                            .dwendentry
    2772                            .dwendtag $C$DW$194
    2773                    
    2774 000003d2                   .sect   ".text"
    2775                            .clink
    2776                            .thumbfunc TimerMatchSet64
    2777 000003d2                   .thumb
    2778                            .global TimerMatchSet64
    2779                    
    2780                    $C$DW$200       .dwtag  DW_TAG_subprogram
    2781                            .dwattr $C$DW$200, DW_AT_name("TimerMatchSet64")
    2782                            .dwattr $C$DW$200, DW_AT_low_pc(TimerMatchSet64)
    2783                            .dwattr $C$DW$200, DW_AT_high_pc(0x00)
    2784                            .dwattr $C$DW$200, DW_AT_TI_symbol_name("TimerMatchSet64")
    2785                            .dwattr $C$DW$200, DW_AT_external
    2786                            .dwattr $C$DW$200, DW_AT_TI_begin_file("C:/TI_CodeComposer/StellarisWare-LM3S1968/driverlib/ti
    2787                            .dwattr $C$DW$200, DW_AT_TI_begin_line(0x43a)
    2788                            .dwattr $C$DW$200, DW_AT_TI_begin_column(0x01)
    2789                            .dwattr $C$DW$200, DW_AT_decl_file("C:/TI_CodeComposer/StellarisWare-LM3S1968/driverlib/timer.
    2790                            .dwattr $C$DW$200, DW_AT_decl_line(0x43a)
    2791                            .dwattr $C$DW$200, DW_AT_decl_column(0x01)
    2792                            .dwattr $C$DW$200, DW_AT_TI_max_frame_size(0x10)
    2793                            .dwpsn  file "C:/TI_CodeComposer/StellarisWare-LM3S1968/driverlib/timer.c",line 1083,column 1,
    2794                    
    2795                            .dwfde $C$DW$CIE, TimerMatchSet64
    2796                    $C$DW$201       .dwtag  DW_TAG_formal_parameter
    2797                            .dwattr $C$DW$201, DW_AT_name("ulBase")
    2798                            .dwattr $C$DW$201, DW_AT_TI_symbol_name("ulBase")
    2799                            .dwattr $C$DW$201, DW_AT_type(*$C$DW$T$13)
    2800                            .dwattr $C$DW$201, DW_AT_location[DW_OP_reg0]
    2801                    
    2802                    $C$DW$202       .dwtag  DW_TAG_formal_parameter
    2803                            .dwattr $C$DW$202, DW_AT_name("ullValue")
TI ARM Assembler PC v15.12.1 Wed Apr 19 15:29:26 2017

Tools Copyright (c) 1996-2015 Texas Instruments Incorporated
Task_TimeOfDay.asm                                                   PAGE   52

    2804                            .dwattr $C$DW$202, DW_AT_TI_symbol_name("ullValue")
    2805                            .dwattr $C$DW$202, DW_AT_type(*$C$DW$T$15)
    2806                            .dwattr $C$DW$202, DW_AT_location[DW_OP_reg2]
    2807                    
    2808                    
    2809                    ;*****************************************************************************
    2810                    ;* FUNCTION NAME: TimerMatchSet64                                            *
    2811                    ;*                                                                           *
    2812                    ;*   Regs Modified     : A1,A2,SP,SR                                         *
    2813                    ;*   Regs Used         : A1,A2,A3,A4,SP,LR,SR                                *
    2814                    ;*   Local Frame Size  : 0 Args + 16 Auto + 0 Save = 16 byte                 *
    2815                    ;*****************************************************************************
    2816 000003d2           TimerMatchSet64:
    2817                    ;* --------------------------------------------------------------------------*
    2818                            .dwcfi  cfa_offset, 0
    2819 000003d2 0D10F1AD          SUB       SP, SP, #16           ; [DPU_3_PIPE]  ; [KEEP 32-BIT INS]
    2820                            .dwcfi  cfa_offset, 16
    2821                    $C$DW$203       .dwtag  DW_TAG_variable
    2822                            .dwattr $C$DW$203, DW_AT_name("ulBase")
    2823                            .dwattr $C$DW$203, DW_AT_TI_symbol_name("ulBase")
    2824                            .dwattr $C$DW$203, DW_AT_type(*$C$DW$T$13)
    2825                            .dwattr $C$DW$203, DW_AT_location[DW_OP_breg13 0]
    2826                    
    2827                    $C$DW$204       .dwtag  DW_TAG_variable
    2828                            .dwattr $C$DW$204, DW_AT_name("ullValue")
    2829                            .dwattr $C$DW$204, DW_AT_TI_symbol_name("ullValue")
    2830                            .dwattr $C$DW$204, DW_AT_type(*$C$DW$T$15)
    2831                            .dwattr $C$DW$204, DW_AT_location[DW_OP_breg13 8]
    2832                    
    2833 000003d6 9000              STR       A1, [SP, #0]          ; [DPU_3_PIPE] |1083|  ; [ORIG 16-BIT INS]
    2834 000003d8 A902              ADD       A2, SP, #8            ; [DPU_3_PIPE] |1083|  ; [ORIG 16-BIT INS]
    2835 000003da 000CE881          STMIA     A2, {A3,A4}           ; [DPU_3_PIPE] |1083|  ; [KEEP 32-BIT INS]
    2836                            .dwpsn  file "C:/TI_CodeComposer/StellarisWare-LM3S1968/driverlib/timer.c",line 1094,column 5,
    2837 000003de A802              ADD       A1, SP, #8            ; [DPU_3_PIPE] |1094|  ; [ORIG 16-BIT INS]
    2838 000003e0 C803              LDMIA     A1, {A1,A2}           ; [DPU_3_PIPE] |1094|  ; [ORIG 16-BIT INS]
    2839 000003e2 9800              LDR       A1, [SP, #0]          ; [DPU_3_PIPE] |1094|  ; [ORIG 16-BIT INS]
    2840 000003e4 1C09              MOVS      A2, A2                ; [DPU_3_PIPE] |1094|  ; [ORIG 16-BIT INS]
    2841 000003e6 6341              STR       A2, [A1, #52]         ; [DPU_3_PIPE] |1094|  ; [ORIG 16-BIT INS]
    2842                            .dwpsn  file "C:/TI_CodeComposer/StellarisWare-LM3S1968/driverlib/timer.c",line 1095,column 5,
    2843 000003e8 9900              LDR       A2, [SP, #0]          ; [DPU_3_PIPE] |1095|  ; [ORIG 16-BIT INS]
    2844 000003ea 9802              LDR       A1, [SP, #8]          ; [DPU_3_PIPE] |1095|  ; [ORIG 16-BIT INS]
    2845 000003ec 6308              STR       A1, [A2, #48]         ; [DPU_3_PIPE] |1095|  ; [ORIG 16-BIT INS]
    2846                            .dwpsn  file "C:/TI_CodeComposer/StellarisWare-LM3S1968/driverlib/timer.c",line 1096,column 1,
    2847 000003ee B004              ADD       SP, SP, #16           ; [DPU_3_PIPE]  ; [ORIG 16-BIT INS]
    2848                            .dwcfi  cfa_offset, 0
    2849                    $C$DW$205       .dwtag  DW_TAG_TI_branch
    2850                            .dwattr $C$DW$205, DW_AT_low_pc(0x00)
    2851                            .dwattr $C$DW$205, DW_AT_TI_return
    2852                    
    2853 000003f0 4770              BX        LR                    ; [DPU_3_PIPE]  ; [ORIG 16-BIT INS]
    2854                            ; BRANCH OCCURS                  ; [] 
    2855                            .dwattr $C$DW$200, DW_AT_TI_end_file("C:/TI_CodeComposer/StellarisWare-LM3S1968/driverlib/time
    2856                            .dwattr $C$DW$200, DW_AT_TI_end_line(0x448)
    2857                            .dwattr $C$DW$200, DW_AT_TI_end_column(0x01)
    2858                            .dwendentry
TI ARM Assembler PC v15.12.1 Wed Apr 19 15:29:26 2017

Tools Copyright (c) 1996-2015 Texas Instruments Incorporated
Task_TimeOfDay.asm                                                   PAGE   53

    2859                            .dwendtag $C$DW$200
    2860                    
    2861 000003f2                   .sect   ".text"
    2862                            .clink
    2863                            .thumbfunc TimerMatchGet64
    2864 000003f2                   .thumb
    2865                            .global TimerMatchGet64
    2866                    
    2867                    $C$DW$206       .dwtag  DW_TAG_subprogram
    2868                            .dwattr $C$DW$206, DW_AT_name("TimerMatchGet64")
    2869                            .dwattr $C$DW$206, DW_AT_low_pc(TimerMatchGet64)
    2870                            .dwattr $C$DW$206, DW_AT_high_pc(0x00)
    2871                            .dwattr $C$DW$206, DW_AT_TI_symbol_name("TimerMatchGet64")
    2872                            .dwattr $C$DW$206, DW_AT_external
    2873                            .dwattr $C$DW$206, DW_AT_type(*$C$DW$T$15)
    2874                            .dwattr $C$DW$206, DW_AT_TI_begin_file("C:/TI_CodeComposer/StellarisWare-LM3S1968/driverlib/ti
    2875                            .dwattr $C$DW$206, DW_AT_TI_begin_line(0x456)
    2876                            .dwattr $C$DW$206, DW_AT_TI_begin_column(0x01)
    2877                            .dwattr $C$DW$206, DW_AT_decl_file("C:/TI_CodeComposer/StellarisWare-LM3S1968/driverlib/timer.
    2878                            .dwattr $C$DW$206, DW_AT_decl_line(0x456)
    2879                            .dwattr $C$DW$206, DW_AT_decl_column(0x01)
    2880                            .dwattr $C$DW$206, DW_AT_TI_max_frame_size(0x10)
    2881                            .dwpsn  file "C:/TI_CodeComposer/StellarisWare-LM3S1968/driverlib/timer.c",line 1111,column 1,
    2882                    
    2883                            .dwfde $C$DW$CIE, TimerMatchGet64
    2884                    $C$DW$207       .dwtag  DW_TAG_formal_parameter
    2885                            .dwattr $C$DW$207, DW_AT_name("ulBase")
    2886                            .dwattr $C$DW$207, DW_AT_TI_symbol_name("ulBase")
    2887                            .dwattr $C$DW$207, DW_AT_type(*$C$DW$T$13)
    2888                            .dwattr $C$DW$207, DW_AT_location[DW_OP_reg0]
    2889                    
    2890                    
    2891                    ;*****************************************************************************
    2892                    ;* FUNCTION NAME: TimerMatchGet64                                            *
    2893                    ;*                                                                           *
    2894                    ;*   Regs Modified     : A1,A2,A3,A4,SP,SR                                   *
    2895                    ;*   Regs Used         : A1,A2,A3,A4,SP,LR,SR                                *
    2896                    ;*   Local Frame Size  : 0 Args + 16 Auto + 0 Save = 16 byte                 *
    2897                    ;*****************************************************************************
    2898 000003f2           TimerMatchGet64:
    2899                    ;* --------------------------------------------------------------------------*
    2900                            .dwcfi  cfa_offset, 0
    2901 000003f2 0D10F1AD          SUB       SP, SP, #16           ; [DPU_3_PIPE]  ; [KEEP 32-BIT INS]
    2902                            .dwcfi  cfa_offset, 16
    2903                    $C$DW$208       .dwtag  DW_TAG_variable
    2904                            .dwattr $C$DW$208, DW_AT_name("ulBase")
    2905                            .dwattr $C$DW$208, DW_AT_TI_symbol_name("ulBase")
    2906                            .dwattr $C$DW$208, DW_AT_type(*$C$DW$T$13)
    2907                            .dwattr $C$DW$208, DW_AT_location[DW_OP_breg13 0]
    2908                    
    2909                    $C$DW$209       .dwtag  DW_TAG_variable
    2910                            .dwattr $C$DW$209, DW_AT_name("ulHigh1")
    2911                            .dwattr $C$DW$209, DW_AT_TI_symbol_name("ulHigh1")
    2912                            .dwattr $C$DW$209, DW_AT_type(*$C$DW$T$13)
    2913                            .dwattr $C$DW$209, DW_AT_location[DW_OP_breg13 4]
TI ARM Assembler PC v15.12.1 Wed Apr 19 15:29:26 2017

Tools Copyright (c) 1996-2015 Texas Instruments Incorporated
Task_TimeOfDay.asm                                                   PAGE   54

    2914                    
    2915                    $C$DW$210       .dwtag  DW_TAG_variable
    2916                            .dwattr $C$DW$210, DW_AT_name("ulHigh2")
    2917                            .dwattr $C$DW$210, DW_AT_TI_symbol_name("ulHigh2")
    2918                            .dwattr $C$DW$210, DW_AT_type(*$C$DW$T$13)
    2919                            .dwattr $C$DW$210, DW_AT_location[DW_OP_breg13 8]
    2920                    
    2921                    $C$DW$211       .dwtag  DW_TAG_variable
    2922                            .dwattr $C$DW$211, DW_AT_name("ulLow")
    2923                            .dwattr $C$DW$211, DW_AT_TI_symbol_name("ulLow")
    2924                            .dwattr $C$DW$211, DW_AT_type(*$C$DW$T$13)
    2925                            .dwattr $C$DW$211, DW_AT_location[DW_OP_breg13 12]
    2926                    
    2927 000003f6 9000              STR       A1, [SP, #0]          ; [DPU_3_PIPE] |1111|  ; [ORIG 16-BIT INS]
    2928                    ;* --------------------------------------------------------------------------*
    2929                    ;*   BEGIN LOOP ||$C$L35||
    2930                    ;*
    2931                    ;*   Loop source line                : 1126
    2932                    ;*   Loop closing brace source line  : 1131
    2933                    ;*   Known Minimum Trip Count        : 1
    2934                    ;*   Known Maximum Trip Count        : 4294967295
    2935                    ;*   Known Max Trip Count Factor     : 1
    2936                    ;* --------------------------------------------------------------------------*
    2937 000003f8           ||$C$L35||:    
    2938                            .dwpsn  file "C:/TI_CodeComposer/StellarisWare-LM3S1968/driverlib/timer.c",line 1128,column 9,
    2939 000003f8 9800              LDR       A1, [SP, #0]          ; [DPU_3_PIPE] |1128|  ; [ORIG 16-BIT INS]
    2940 000003fa 6B40              LDR       A1, [A1, #52]         ; [DPU_3_PIPE] |1128|  ; [ORIG 16-BIT INS]
    2941 000003fc 9001              STR       A1, [SP, #4]          ; [DPU_3_PIPE] |1128|  ; [ORIG 16-BIT INS]
    2942                            .dwpsn  file "C:/TI_CodeComposer/StellarisWare-LM3S1968/driverlib/timer.c",line 1129,column 9,
