TI ARM Assembler PC v15.12.1 Wed Feb 08 15:17:48 2017

Tools Copyright (c) 1996-2015 Texas Instruments Incorporated
Program_PushButton.asm                                               PAGE    1

       1                    ;******************************************************************************
       2                    ;* TI ARM C/C++ Codegen                                       PC v15.12.1.LTS *
       3                    ;* Date/Time created: Wed Feb 08 15:17:48 2017                                *
       4                    ;******************************************************************************
       5                            .compiler_opts --abi=eabi --arm_vmrs_si_workaround=off --code_state=16 --diag_wrap=off --disab
       6 00000000                   .thumb
       7                    
       8                    $C$DW$CU        .dwtag  DW_TAG_compile_unit
       9                            .dwattr $C$DW$CU, DW_AT_name("../Program_PushButton.c")
      10                            .dwattr $C$DW$CU, DW_AT_producer("TI TI ARM C/C++ Codegen PC v15.12.1.LTS Copyright (c) 1996-2
      11                            .dwattr $C$DW$CU, DW_AT_TI_version(0x01)
      12                            .dwattr $C$DW$CU, DW_AT_comp_dir("H:\EECS_388\TI_ARM_Projects\Program_PushButton\Debug")
      13                    
      14                    $C$DW$1 .dwtag  DW_TAG_subprogram
      15                            .dwattr $C$DW$1, DW_AT_name("SysCtlClockSet")
      16                            .dwattr $C$DW$1, DW_AT_TI_symbol_name("SysCtlClockSet")
      17                            .dwattr $C$DW$1, DW_AT_declaration
      18                            .dwattr $C$DW$1, DW_AT_external
      19                            .dwattr $C$DW$1, DW_AT_decl_file("C:/TI_CodeComposer/StellarisWare-LM3S1968/driverlib/sysctl.h
      20                            .dwattr $C$DW$1, DW_AT_decl_line(0x267)
      21                            .dwattr $C$DW$1, DW_AT_decl_column(0x0d)
      22                    $C$DW$2 .dwtag  DW_TAG_formal_parameter
      23                            .dwattr $C$DW$2, DW_AT_type(*$C$DW$T$13)
      24                    
      25                            .dwendtag $C$DW$1
      26                    
      27                    
      28                    $C$DW$3 .dwtag  DW_TAG_subprogram
      29                            .dwattr $C$DW$3, DW_AT_name("SysCtlClockGet")
      30                            .dwattr $C$DW$3, DW_AT_TI_symbol_name("SysCtlClockGet")
      31                            .dwattr $C$DW$3, DW_AT_type(*$C$DW$T$13)
      32                            .dwattr $C$DW$3, DW_AT_declaration
      33                            .dwattr $C$DW$3, DW_AT_external
      34                            .dwattr $C$DW$3, DW_AT_decl_file("C:/TI_CodeComposer/StellarisWare-LM3S1968/driverlib/sysctl.h
      35                            .dwattr $C$DW$3, DW_AT_decl_line(0x268)
      36                            .dwattr $C$DW$3, DW_AT_decl_column(0x16)
      37                            .dwendtag $C$DW$3
      38                    
      39                    
      40                    $C$DW$4 .dwtag  DW_TAG_subprogram
      41                            .dwattr $C$DW$4, DW_AT_name("SysTickEnable")
      42                            .dwattr $C$DW$4, DW_AT_TI_symbol_name("SysTickEnable")
      43                            .dwattr $C$DW$4, DW_AT_declaration
      44                            .dwattr $C$DW$4, DW_AT_external
      45                            .dwattr $C$DW$4, DW_AT_decl_file("C:/TI_CodeComposer/StellarisWare-LM3S1968/driverlib/systick.
      46                            .dwattr $C$DW$4, DW_AT_decl_line(0x3b)
      47                            .dwattr $C$DW$4, DW_AT_decl_column(0x0d)
      48                            .dwendtag $C$DW$4
      49                    
      50                    
      51                    $C$DW$5 .dwtag  DW_TAG_subprogram
      52                            .dwattr $C$DW$5, DW_AT_name("SysTickIntEnable")
      53                            .dwattr $C$DW$5, DW_AT_TI_symbol_name("SysTickIntEnable")
      54                            .dwattr $C$DW$5, DW_AT_declaration
      55                            .dwattr $C$DW$5, DW_AT_external
TI ARM Assembler PC v15.12.1 Wed Feb 08 15:17:48 2017

Tools Copyright (c) 1996-2015 Texas Instruments Incorporated
Program_PushButton.asm                                               PAGE    2

      56                            .dwattr $C$DW$5, DW_AT_decl_file("C:/TI_CodeComposer/StellarisWare-LM3S1968/driverlib/systick.
      57                            .dwattr $C$DW$5, DW_AT_decl_line(0x3f)
      58                            .dwattr $C$DW$5, DW_AT_decl_column(0x0d)
      59                            .dwendtag $C$DW$5
      60                    
      61                    
      62                    $C$DW$6 .dwtag  DW_TAG_subprogram
      63                            .dwattr $C$DW$6, DW_AT_name("SysTickPeriodSet")
      64                            .dwattr $C$DW$6, DW_AT_TI_symbol_name("SysTickPeriodSet")
      65                            .dwattr $C$DW$6, DW_AT_declaration
      66                            .dwattr $C$DW$6, DW_AT_external
      67                            .dwattr $C$DW$6, DW_AT_decl_file("C:/TI_CodeComposer/StellarisWare-LM3S1968/driverlib/systick.
      68                            .dwattr $C$DW$6, DW_AT_decl_line(0x41)
      69                            .dwattr $C$DW$6, DW_AT_decl_column(0x0d)
      70                    $C$DW$7 .dwtag  DW_TAG_formal_parameter
      71                            .dwattr $C$DW$7, DW_AT_type(*$C$DW$T$13)
      72                    
      73                            .dwendtag $C$DW$6
      74                    
      75                    
      76                    $C$DW$8 .dwtag  DW_TAG_subprogram
      77                            .dwattr $C$DW$8, DW_AT_name("RIT128x96x4StringDraw")
      78                            .dwattr $C$DW$8, DW_AT_TI_symbol_name("RIT128x96x4StringDraw")
      79                            .dwattr $C$DW$8, DW_AT_declaration
      80                            .dwattr $C$DW$8, DW_AT_external
      81                            .dwattr $C$DW$8, DW_AT_decl_file("..\Drivers/rit128x96x4.h")
      82                            .dwattr $C$DW$8, DW_AT_decl_line(0x23)
      83                            .dwattr $C$DW$8, DW_AT_decl_column(0x0d)
      84                    $C$DW$9 .dwtag  DW_TAG_formal_parameter
      85                            .dwattr $C$DW$9, DW_AT_type(*$C$DW$T$29)
      86                    
      87                    $C$DW$10        .dwtag  DW_TAG_formal_parameter
      88                            .dwattr $C$DW$10, DW_AT_type(*$C$DW$T$13)
      89                    
      90                    $C$DW$11        .dwtag  DW_TAG_formal_parameter
      91                            .dwattr $C$DW$11, DW_AT_type(*$C$DW$T$13)
      92                    
      93                    $C$DW$12        .dwtag  DW_TAG_formal_parameter
      94                            .dwattr $C$DW$12, DW_AT_type(*$C$DW$T$6)
      95                    
      96                            .dwendtag $C$DW$8
      97                    
      98                    
      99                    $C$DW$13        .dwtag  DW_TAG_subprogram
     100                            .dwattr $C$DW$13, DW_AT_name("RIT128x96x4Init")
     101                            .dwattr $C$DW$13, DW_AT_TI_symbol_name("RIT128x96x4Init")
     102                            .dwattr $C$DW$13, DW_AT_declaration
     103                            .dwattr $C$DW$13, DW_AT_external
     104                            .dwattr $C$DW$13, DW_AT_decl_file("..\Drivers/rit128x96x4.h")
     105                            .dwattr $C$DW$13, DW_AT_decl_line(0x2c)
     106                            .dwattr $C$DW$13, DW_AT_decl_column(0x0d)
     107                    $C$DW$14        .dwtag  DW_TAG_formal_parameter
     108                            .dwattr $C$DW$14, DW_AT_type(*$C$DW$T$13)
     109                    
     110                            .dwendtag $C$DW$13
TI ARM Assembler PC v15.12.1 Wed Feb 08 15:17:48 2017

Tools Copyright (c) 1996-2015 Texas Instruments Incorporated
Program_PushButton.asm                                               PAGE    3

     111                    
     112                    
     113                    $C$DW$15        .dwtag  DW_TAG_subprogram
     114                            .dwattr $C$DW$15, DW_AT_name("Task_LEDBlink")
     115                            .dwattr $C$DW$15, DW_AT_TI_symbol_name("Task_LEDBlink")
     116                            .dwattr $C$DW$15, DW_AT_declaration
     117                            .dwattr $C$DW$15, DW_AT_external
     118                            .dwattr $C$DW$15, DW_AT_decl_file("../Program_PushButton.c")
     119                            .dwattr $C$DW$15, DW_AT_decl_line(0x49)
     120                            .dwattr $C$DW$15, DW_AT_decl_column(0x0d)
     121                            .dwendtag $C$DW$15
     122                    
     123                    
     124                    $C$DW$16        .dwtag  DW_TAG_subprogram
     125                            .dwattr $C$DW$16, DW_AT_name("Task_ReportSysTick")
     126                            .dwattr $C$DW$16, DW_AT_TI_symbol_name("Task_ReportSysTick")
     127                            .dwattr $C$DW$16, DW_AT_declaration
     128                            .dwattr $C$DW$16, DW_AT_external
     129                            .dwattr $C$DW$16, DW_AT_decl_file("../Program_PushButton.c")
     130                            .dwattr $C$DW$16, DW_AT_decl_line(0x4a)
     131                            .dwattr $C$DW$16, DW_AT_decl_column(0x0d)
     132                            .dwendtag $C$DW$16
     133                    
     134                    
     135                    $C$DW$17        .dwtag  DW_TAG_subprogram
     136                            .dwattr $C$DW$17, DW_AT_name("Task_Speakerbuzz")
     137                            .dwattr $C$DW$17, DW_AT_TI_symbol_name("Task_Speakerbuzz")
     138                            .dwattr $C$DW$17, DW_AT_declaration
     139                            .dwattr $C$DW$17, DW_AT_external
     140                            .dwattr $C$DW$17, DW_AT_decl_file("../Program_PushButton.c")
     141                            .dwattr $C$DW$17, DW_AT_decl_line(0x4b)
     142                            .dwattr $C$DW$17, DW_AT_decl_column(0x0d)
     143                            .dwendtag $C$DW$17
     144                    
     145                    
     146                    $C$DW$18        .dwtag  DW_TAG_subprogram
     147                            .dwattr $C$DW$18, DW_AT_name("Task_PushButton")
     148                            .dwattr $C$DW$18, DW_AT_TI_symbol_name("Task_PushButton")
     149                            .dwattr $C$DW$18, DW_AT_declaration
     150                            .dwattr $C$DW$18, DW_AT_external
     151                            .dwattr $C$DW$18, DW_AT_decl_file("../Program_PushButton.c")
     152                            .dwattr $C$DW$18, DW_AT_decl_line(0x4c)
     153                            .dwattr $C$DW$18, DW_AT_decl_column(0x0d)
     154                            .dwendtag $C$DW$18
     155                    
     156                            .global g_ulSystemClock
     157                            .common g_ulSystemClock,4,4
     158                    $C$DW$19        .dwtag  DW_TAG_variable
     159                            .dwattr $C$DW$19, DW_AT_name("g_ulSystemClock")
     160                            .dwattr $C$DW$19, DW_AT_TI_symbol_name("g_ulSystemClock")
     161                            .dwattr $C$DW$19, DW_AT_location[DW_OP_addr g_ulSystemClock]
     162                            .dwattr $C$DW$19, DW_AT_type(*$C$DW$T$53)
     163                            .dwattr $C$DW$19, DW_AT_external
     164                            .dwattr $C$DW$19, DW_AT_decl_file("../Program_PushButton.c")
     165                            .dwattr $C$DW$19, DW_AT_decl_line(0x36)
TI ARM Assembler PC v15.12.1 Wed Feb 08 15:17:48 2017

Tools Copyright (c) 1996-2015 Texas Instruments Incorporated
Program_PushButton.asm                                               PAGE    4

     166                            .dwattr $C$DW$19, DW_AT_decl_column(0x0a)
     167                    
     168                            .global SysTickFrequency_Nbr
     169 00000000                   .data
     170                            .align  4
     171                            .elfsym SysTickFrequency_Nbr,SYM_SIZE(4)
     172 00000000           SysTickFrequency_Nbr:
     173 00000000 00002710          .bits   10000,32                        ; SysTickFrequency_Nbr @ 0
     174                    
     175                    $C$DW$20        .dwtag  DW_TAG_variable
     176                            .dwattr $C$DW$20, DW_AT_name("SysTickFrequency_Nbr")
     177                            .dwattr $C$DW$20, DW_AT_TI_symbol_name("SysTickFrequency_Nbr")
     178                            .dwattr $C$DW$20, DW_AT_location[DW_OP_addr SysTickFrequency_Nbr]
     179                            .dwattr $C$DW$20, DW_AT_type(*$C$DW$T$53)
     180                            .dwattr $C$DW$20, DW_AT_external
     181                            .dwattr $C$DW$20, DW_AT_decl_file("../Program_PushButton.c")
     182                            .dwattr $C$DW$20, DW_AT_decl_line(0x41)
     183                            .dwattr $C$DW$20, DW_AT_decl_column(0x14)
     184                    
     185                            .global SysTickCount_Nbr
     186 00000004                   .data
     187                            .align  4
     188                            .elfsym SysTickCount_Nbr,SYM_SIZE(4)
     189 00000004           SysTickCount_Nbr:
     190 00000004 00000000          .bits   0,32                    ; SysTickCount_Nbr @ 0
     191                    
     192                    $C$DW$21        .dwtag  DW_TAG_variable
     193                            .dwattr $C$DW$21, DW_AT_name("SysTickCount_Nbr")
     194                            .dwattr $C$DW$21, DW_AT_TI_symbol_name("SysTickCount_Nbr")
     195                            .dwattr $C$DW$21, DW_AT_location[DW_OP_addr SysTickCount_Nbr]
     196                            .dwattr $C$DW$21, DW_AT_type(*$C$DW$T$54)
     197                            .dwattr $C$DW$21, DW_AT_external
     198                            .dwattr $C$DW$21, DW_AT_decl_file("../Program_PushButton.c")
     199                            .dwattr $C$DW$21, DW_AT_decl_line(0x42)
     200                            .dwattr $C$DW$21, DW_AT_decl_column(0x1b)
     201                    
     202                            .global OLED_Initialized
     203 00000008                   .data
     204                            .align  1
     205                            .elfsym OLED_Initialized,SYM_SIZE(1)
     206 00000008           OLED_Initialized:
     207 00000008 00000000          .bits   0,8                     ; OLED_Initialized @ 0
     208                    
     209                    $C$DW$22        .dwtag  DW_TAG_variable
     210                            .dwattr $C$DW$22, DW_AT_name("OLED_Initialized")
     211                            .dwattr $C$DW$22, DW_AT_TI_symbol_name("OLED_Initialized")
     212                            .dwattr $C$DW$22, DW_AT_location[DW_OP_addr OLED_Initialized]
     213                            .dwattr $C$DW$22, DW_AT_type(*$C$DW$T$73)
     214                            .dwattr $C$DW$22, DW_AT_external
     215                            .dwattr $C$DW$22, DW_AT_decl_file("../Program_PushButton.c")
     216                            .dwattr $C$DW$22, DW_AT_decl_line(0x62)
     217                            .dwattr $C$DW$22, DW_AT_decl_column(0x06)
     218                    
     219                    ;       C:\TI_CodeComposer\ccsv6\tools\compiler\ti-cgt-arm_15.12.1.LTS\bin\armacpia.exe -@C:\\Users\\S
     220 00000000                   .sect   ".text"
TI ARM Assembler PC v15.12.1 Wed Feb 08 15:17:48 2017

Tools Copyright (c) 1996-2015 Texas Instruments Incorporated
Program_PushButton.asm                                               PAGE    5

     221                            .clink
     222                            .thumbfunc SysTickIntHandler
     223 00000000                   .thumb
     224                            .global SysTickIntHandler
     225                    
     226                    $C$DW$23        .dwtag  DW_TAG_subprogram
     227                            .dwattr $C$DW$23, DW_AT_name("SysTickIntHandler")
     228                            .dwattr $C$DW$23, DW_AT_low_pc(SysTickIntHandler)
     229                            .dwattr $C$DW$23, DW_AT_high_pc(0x00)
     230                            .dwattr $C$DW$23, DW_AT_TI_symbol_name("SysTickIntHandler")
     231                            .dwattr $C$DW$23, DW_AT_external
     232                            .dwattr $C$DW$23, DW_AT_TI_begin_file("../Program_PushButton.c")
     233                            .dwattr $C$DW$23, DW_AT_TI_begin_line(0x52)
     234                            .dwattr $C$DW$23, DW_AT_TI_begin_column(0x0d)
     235                            .dwattr $C$DW$23, DW_AT_decl_file("../Program_PushButton.c")
     236                            .dwattr $C$DW$23, DW_AT_decl_line(0x52)
     237                            .dwattr $C$DW$23, DW_AT_decl_column(0x0d)
     238                            .dwattr $C$DW$23, DW_AT_TI_max_frame_size(0x00)
     239                            .dwpsn  file "../Program_PushButton.c",line 82,column 37,is_stmt,address SysTickIntHandler,isa
     240                    
     241                            .dwfde $C$DW$CIE, SysTickIntHandler
     242                    
     243                    ;*****************************************************************************
     244                    ;* FUNCTION NAME: SysTickIntHandler                                          *
     245                    ;*                                                                           *
     246                    ;*   Regs Modified     : A1,A2,SR                                            *
     247                    ;*   Regs Used         : A1,A2,LR,SR                                         *
     248                    ;*   Local Frame Size  : 0 Args + 0 Auto + 0 Save = 0 byte                   *
     249                    ;*****************************************************************************
     250 00000000           SysTickIntHandler:
     251                    ;* --------------------------------------------------------------------------*
     252                            .dwcfi  cfa_offset, 0
     253                            .dwpsn  file "../Program_PushButton.c",line 88,column 2,is_stmt,isa 1
     254 00000000 491D              LDR       A2, $C$CON1           ; [DPU_3_PIPE] |88|  ; [ORIG 16-BIT INS]
     255 00000002 6808              LDR       A1, [A2, #0]          ; [DPU_3_PIPE] |88|  ; [ORIG 16-BIT INS]
     256 00000004 1C40              ADDS      A1, A1, #1            ; [DPU_3_PIPE] |88|  ; [ORIG 16-BIT INS]
     257 00000006 6008              STR       A1, [A2, #0]          ; [DPU_3_PIPE] |88|  ; [ORIG 16-BIT INS]
     258                            .dwpsn  file "../Program_PushButton.c",line 90,column 1,is_stmt,isa 1
     259                    $C$DW$24        .dwtag  DW_TAG_TI_branch
     260                            .dwattr $C$DW$24, DW_AT_low_pc(0x00)
     261                            .dwattr $C$DW$24, DW_AT_TI_return
     262                    
     263 00000008 4770              BX        LR                    ; [DPU_3_PIPE]  ; [ORIG 16-BIT INS]
     264                            ; BRANCH OCCURS                  ; [] 
     265                            .dwattr $C$DW$23, DW_AT_TI_end_file("../Program_PushButton.c")
     266                            .dwattr $C$DW$23, DW_AT_TI_end_line(0x5a)
     267                            .dwattr $C$DW$23, DW_AT_TI_end_column(0x01)
     268                            .dwendentry
     269                            .dwendtag $C$DW$23
     270                    
     271 0000000a                   .sect   ".text"
     272                            .clink
     273                            .thumbfunc Initialize_OLED
     274 0000000a                   .thumb
     275                            .global Initialize_OLED
TI ARM Assembler PC v15.12.1 Wed Feb 08 15:17:48 2017

Tools Copyright (c) 1996-2015 Texas Instruments Incorporated
Program_PushButton.asm                                               PAGE    6

     276                    
     277                    $C$DW$25        .dwtag  DW_TAG_subprogram
     278                            .dwattr $C$DW$25, DW_AT_name("Initialize_OLED")
     279                            .dwattr $C$DW$25, DW_AT_low_pc(Initialize_OLED)
     280                            .dwattr $C$DW$25, DW_AT_high_pc(0x00)
     281                            .dwattr $C$DW$25, DW_AT_TI_symbol_name("Initialize_OLED")
     282                            .dwattr $C$DW$25, DW_AT_external
     283                            .dwattr $C$DW$25, DW_AT_TI_begin_file("../Program_PushButton.c")
     284                            .dwattr $C$DW$25, DW_AT_TI_begin_line(0x64)
     285                            .dwattr $C$DW$25, DW_AT_TI_begin_column(0x0d)
     286                            .dwattr $C$DW$25, DW_AT_decl_file("../Program_PushButton.c")
     287                            .dwattr $C$DW$25, DW_AT_decl_line(0x64)
     288                            .dwattr $C$DW$25, DW_AT_decl_column(0x0d)
     289                            .dwattr $C$DW$25, DW_AT_TI_max_frame_size(0x08)
     290                            .dwpsn  file "../Program_PushButton.c",line 100,column 31,is_stmt,address Initialize_OLED,isa 
     291                    
     292                            .dwfde $C$DW$CIE, Initialize_OLED
     293                    
     294                    ;*****************************************************************************
     295                    ;* FUNCTION NAME: Initialize_OLED                                            *
     296                    ;*                                                                           *
     297                    ;*   Regs Modified     : A1,A2,A3,A4,V9,SP,LR,SR                             *
     298                    ;*   Regs Used         : A1,A2,A3,A4,V9,SP,LR,SR                             *
     299                    ;*   Local Frame Size  : 0 Args + 0 Auto + 4 Save = 4 byte                   *
     300                    ;*****************************************************************************
     301 0000000a           Initialize_OLED:
     302                    ;* --------------------------------------------------------------------------*
     303                            .dwcfi  cfa_offset, 0
     304 0000000a B508              PUSH      {A4, LR}              ; [DPU_3_PIPE]  ; [ORIG 16-BIT INS]
     305                            .dwcfi  cfa_offset, 8
     306                            .dwcfi  save_reg_to_mem, 14, -4
     307                            .dwcfi  save_reg_to_mem, 3, -8
     308                            .dwpsn  file "../Program_PushButton.c",line 102,column 2,is_stmt,isa 1
     309 0000000c 481B              LDR       A1, $C$CON2           ; [DPU_3_PIPE] |102|  ; [ORIG 16-BIT INS]
     310 0000000e 7800              LDRB      A1, [A1, #0]          ; [DPU_3_PIPE] |102|  ; [ORIG 16-BIT INS]
     311 00000010 B958              CBNZ      A1, ||$C$L1||         ; []  ; [ORIG 16-BIT INS]
     312                            ; BRANCHCC OCCURS {||$C$L1||}    ; [] |102| 
     313                    ;* --------------------------------------------------------------------------*
     314                            .dwpsn  file "../Program_PushButton.c",line 106,column 3,is_stmt,isa 1
     315 00000012 481B              LDR       A1, $C$CON3           ; [DPU_3_PIPE] |106|  ; [ORIG 16-BIT INS]
     316                    $C$DW$26        .dwtag  DW_TAG_TI_branch
     317                            .dwattr $C$DW$26, DW_AT_low_pc(0x00)
     318                            .dwattr $C$DW$26, DW_AT_name("RIT128x96x4Init")
     319                            .dwattr $C$DW$26, DW_AT_TI_call
     320                    
     321 00000014 FFFEF7FF!         BL        RIT128x96x4Init       ; [DPU_3_PIPE] |106|  ; [KEEP 32-BIT INS]
     322                            ; CALL OCCURS {RIT128x96x4Init }  ; [] |106| 
     323                            .dwpsn  file "../Program_PushButton.c",line 107,column 3,is_stmt,isa 1
     324 00000018 A013              ADR       A1, $C$SL1            ; [DPU_3_PIPE] |107|  ; [ORIG 16-BIT INS]
     325 0000001a 2124              MOVS      A2, #36               ; [DPU_3_PIPE] |107|  ; [ORIG 16-BIT INS]
     326 0000001c 2200              MOVS      A3, #0                ; [DPU_3_PIPE] |107|  ; [ORIG 16-BIT INS]
     327 0000001e 2308              MOVS      A4, #8                ; [DPU_3_PIPE] |107|  ; [ORIG 16-BIT INS]
     328                    $C$DW$27        .dwtag  DW_TAG_TI_branch
     329                            .dwattr $C$DW$27, DW_AT_low_pc(0x00)
     330                            .dwattr $C$DW$27, DW_AT_name("RIT128x96x4StringDraw")
TI ARM Assembler PC v15.12.1 Wed Feb 08 15:17:48 2017

Tools Copyright (c) 1996-2015 Texas Instruments Incorporated
Program_PushButton.asm                                               PAGE    7

     331                            .dwattr $C$DW$27, DW_AT_TI_call
     332                    
     333 00000020 FFFEF7FF!         BL        RIT128x96x4StringDraw ; [DPU_3_PIPE] |107|  ; [KEEP 32-BIT INS]
     334                            ; CALL OCCURS {RIT128x96x4StringDraw }  ; [] |107| 
     335                            .dwpsn  file "../Program_PushButton.c",line 109,column 3,is_stmt,isa 1
     336 00000024 4915              LDR       A2, $C$CON2           ; [DPU_3_PIPE] |109|  ; [ORIG 16-BIT INS]
     337 00000026 2001              MOVS      A1, #1                ; [DPU_3_PIPE] |109|  ; [ORIG 16-BIT INS]
     338 00000028 7008              STRB      A1, [A2, #0]          ; [DPU_3_PIPE] |109|  ; [ORIG 16-BIT INS]
     339                            .dwpsn  file "../Program_PushButton.c",line 112,column 1,is_stmt,isa 1
     340                    ;* --------------------------------------------------------------------------*
     341                    ||$C$L1||:    
     342                    $C$DW$28        .dwtag  DW_TAG_TI_branch
     343                            .dwattr $C$DW$28, DW_AT_low_pc(0x00)
     344                            .dwattr $C$DW$28, DW_AT_TI_return
     345                    
     346 0000002a BD08              POP       {A4, PC}              ; [DPU_3_PIPE]  ; [ORIG 16-BIT INS]
     347                            .dwcfi  cfa_offset, 0
     348                            ; BRANCH OCCURS                  ; [] 
     349                            .dwattr $C$DW$25, DW_AT_TI_end_file("../Program_PushButton.c")
     350                            .dwattr $C$DW$25, DW_AT_TI_end_line(0x70)
     351                            .dwattr $C$DW$25, DW_AT_TI_end_column(0x01)
     352                            .dwendentry
     353                            .dwendtag $C$DW$25
     354                    
     355 0000002c                   .sect   ".text"
     356                            .clink
     357                            .thumbfunc main
     358 0000002c                   .thumb
     359                            .global main
     360                    
     361                    $C$DW$29        .dwtag  DW_TAG_subprogram
     362                            .dwattr $C$DW$29, DW_AT_name("main")
     363                            .dwattr $C$DW$29, DW_AT_low_pc(main)
     364                            .dwattr $C$DW$29, DW_AT_high_pc(0x00)
     365                            .dwattr $C$DW$29, DW_AT_TI_symbol_name("main")
     366                            .dwattr $C$DW$29, DW_AT_external
     367                            .dwattr $C$DW$29, DW_AT_type(*$C$DW$T$10)
     368                            .dwattr $C$DW$29, DW_AT_TI_begin_file("../Program_PushButton.c")
     369                            .dwattr $C$DW$29, DW_AT_TI_begin_line(0x7b)
     370                            .dwattr $C$DW$29, DW_AT_TI_begin_column(0x05)
     371                            .dwattr $C$DW$29, DW_AT_decl_file("../Program_PushButton.c")
     372                            .dwattr $C$DW$29, DW_AT_decl_line(0x7b)
     373                            .dwattr $C$DW$29, DW_AT_decl_column(0x05)
     374                            .dwattr $C$DW$29, DW_AT_TI_max_frame_size(0x08)
     375                            .dwpsn  file "../Program_PushButton.c",line 123,column 19,is_stmt,address main,isa 1
     376                    
     377                            .dwfde $C$DW$CIE, main
     378                    
     379                    ;*****************************************************************************
     380                    ;* FUNCTION NAME: main                                                       *
     381                    ;*                                                                           *
     382                    ;*   Regs Modified     : A1,A2,A3,A4,V9,SP,LR,SR                             *
     383                    ;*   Regs Used         : A1,A2,A3,A4,V9,SP,LR,SR                             *
     384                    ;*   Local Frame Size  : 0 Args + 0 Auto + 4 Save = 4 byte                   *
     385                    ;*****************************************************************************
TI ARM Assembler PC v15.12.1 Wed Feb 08 15:17:48 2017

Tools Copyright (c) 1996-2015 Texas Instruments Incorporated
Program_PushButton.asm                                               PAGE    8

     386 0000002c           main:
     387                    ;* --------------------------------------------------------------------------*
     388                            .dwcfi  cfa_offset, 0
     389 0000002c B508              PUSH      {A4, LR}              ; [DPU_3_PIPE]  ; [ORIG 16-BIT INS]
     390                            .dwcfi  cfa_offset, 8
     391                            .dwcfi  save_reg_to_mem, 14, -4
     392                            .dwcfi  save_reg_to_mem, 3, -8
     393                            .dwpsn  file "../Program_PushButton.c",line 128,column 5,is_stmt,isa 1
     394 0000002e 4815              LDR       A1, $C$CON4           ; [DPU_3_PIPE] |128|  ; [ORIG 16-BIT INS]
     395                    $C$DW$30        .dwtag  DW_TAG_TI_branch
     396                            .dwattr $C$DW$30, DW_AT_low_pc(0x00)
     397                            .dwattr $C$DW$30, DW_AT_name("SysCtlClockSet")
     398                            .dwattr $C$DW$30, DW_AT_TI_call
     399                    
     400 00000030 FFFEF7FF!         BL        SysCtlClockSet        ; [DPU_3_PIPE] |128|  ; [KEEP 32-BIT INS]
     401                            ; CALL OCCURS {SysCtlClockSet }  ; [] |128| 
     402                            .dwpsn  file "../Program_PushButton.c",line 134,column 2,is_stmt,isa 1
     403                    $C$DW$31        .dwtag  DW_TAG_TI_branch
     404                            .dwattr $C$DW$31, DW_AT_low_pc(0x00)
     405                            .dwattr $C$DW$31, DW_AT_name("SysCtlClockGet")
     406                            .dwattr $C$DW$31, DW_AT_TI_call
     407                    
     408 00000034 FFFEF7FF!         BL        SysCtlClockGet        ; [DPU_3_PIPE] |134|  ; [KEEP 32-BIT INS]
     409                            ; CALL OCCURS {SysCtlClockGet }  ; [] |134| 
     410 00000038 4913              LDR       A2, $C$CON5           ; [DPU_3_PIPE] |134|  ; [ORIG 16-BIT INS]
     411 0000003a 6008              STR       A1, [A2, #0]          ; [DPU_3_PIPE] |134|  ; [ORIG 16-BIT INS]
     412                            .dwpsn  file "../Program_PushButton.c",line 139,column 5,is_stmt,isa 1
     413 0000003c 4813              LDR       A1, $C$CON6           ; [DPU_3_PIPE] |139|  ; [ORIG 16-BIT INS]
     414 0000003e 4912              LDR       A2, $C$CON5           ; [DPU_3_PIPE] |139|  ; [ORIG 16-BIT INS]
     415 00000040 6800              LDR       A1, [A1, #0]          ; [DPU_3_PIPE] |139|  ; [ORIG 16-BIT INS]
     416 00000042 6809              LDR       A2, [A2, #0]          ; [DPU_3_PIPE] |139|  ; [ORIG 16-BIT INS]
     417 00000044 F0F0FBB1          UDIV      A1, A2, A1            ; [DPU_3_PIPE] |139|  ; [KEEP 32-BIT INS]
     418                    $C$DW$32        .dwtag  DW_TAG_TI_branch
     419                            .dwattr $C$DW$32, DW_AT_low_pc(0x00)
     420                            .dwattr $C$DW$32, DW_AT_name("SysTickPeriodSet")
     421                            .dwattr $C$DW$32, DW_AT_TI_call
     422                    
     423 00000048 FFFEF7FF!         BL        SysTickPeriodSet      ; [DPU_3_PIPE] |139|  ; [KEEP 32-BIT INS]
     424                            ; CALL OCCURS {SysTickPeriodSet }  ; [] |139| 
     425                            .dwpsn  file "../Program_PushButton.c",line 140,column 5,is_stmt,isa 1
     426                    $C$DW$33        .dwtag  DW_TAG_TI_branch
     427                            .dwattr $C$DW$33, DW_AT_low_pc(0x00)
     428                            .dwattr $C$DW$33, DW_AT_name("SysTickIntEnable")
     429                            .dwattr $C$DW$33, DW_AT_TI_call
     430                    
     431 0000004c FFFEF7FF!         BL        SysTickIntEnable      ; [DPU_3_PIPE] |140|  ; [KEEP 32-BIT INS]
     432                            ; CALL OCCURS {SysTickIntEnable }  ; [] |140| 
     433                            .dwpsn  file "../Program_PushButton.c",line 141,column 5,is_stmt,isa 1
     434                    $C$DW$34        .dwtag  DW_TAG_TI_branch
     435                            .dwattr $C$DW$34, DW_AT_low_pc(0x00)
     436                            .dwattr $C$DW$34, DW_AT_name("SysTickEnable")
     437                            .dwattr $C$DW$34, DW_AT_TI_call
     438                    
     439 00000050 FFFEF7FF!         BL        SysTickEnable         ; [DPU_3_PIPE] |141|  ; [KEEP 32-BIT INS]
     440                            ; CALL OCCURS {SysTickEnable }   ; [] |141| 
TI ARM Assembler PC v15.12.1 Wed Feb 08 15:17:48 2017

Tools Copyright (c) 1996-2015 Texas Instruments Incorporated
Program_PushButton.asm                                               PAGE    9

     441                            .dwpsn  file "../Program_PushButton.c",line 147,column 13,is_stmt,isa 1
     442                    ;* --------------------------------------------------------------------------*
     443                    ;*   BEGIN LOOP ||$C$L2||
     444                    ;*
     445                    ;*   Loop source line                : 147
     446                    ;*   Loop closing brace source line  : 152
     447                    ;*   Known Minimum Trip Count        : 1
     448                    ;*   Known Maximum Trip Count        : 4294967295
     449                    ;*   Known Max Trip Count Factor     : 1
     450                    ;* --------------------------------------------------------------------------*
     451 00000054           ||$C$L2||:    
     452                            .dwpsn  file "../Program_PushButton.c",line 148,column 6,is_stmt,isa 1
     453                    $C$DW$35        .dwtag  DW_TAG_TI_branch
     454                            .dwattr $C$DW$35, DW_AT_low_pc(0x00)
     455                            .dwattr $C$DW$35, DW_AT_name("Task_LEDBlink")
     456                            .dwattr $C$DW$35, DW_AT_TI_call
     457                    
     458 00000054 FFFEF7FF!         BL        Task_LEDBlink         ; [DPU_3_PIPE] |148|  ; [KEEP 32-BIT INS]
     459                            ; CALL OCCURS {Task_LEDBlink }   ; [] |148| 
     460                            .dwpsn  file "../Program_PushButton.c",line 149,column 6,is_stmt,isa 1
     461                    $C$DW$36        .dwtag  DW_TAG_TI_branch
     462                            .dwattr $C$DW$36, DW_AT_low_pc(0x00)
     463                            .dwattr $C$DW$36, DW_AT_name("Task_ReportSysTick")
     464                            .dwattr $C$DW$36, DW_AT_TI_call
     465                    
     466 00000058 FFFEF7FF!         BL        Task_ReportSysTick    ; [DPU_3_PIPE] |149|  ; [KEEP 32-BIT INS]
     467                            ; CALL OCCURS {Task_ReportSysTick }  ; [] |149| 
     468                            .dwpsn  file "../Program_PushButton.c",line 150,column 6,is_stmt,isa 1
     469                    $C$DW$37        .dwtag  DW_TAG_TI_branch
     470                            .dwattr $C$DW$37, DW_AT_low_pc(0x00)
     471                            .dwattr $C$DW$37, DW_AT_name("Task_Speakerbuzz")
     472                            .dwattr $C$DW$37, DW_AT_TI_call
     473                    
     474 0000005c FFFEF7FF!         BL        Task_Speakerbuzz      ; [DPU_3_PIPE] |150|  ; [KEEP 32-BIT INS]
     475                            ; CALL OCCURS {Task_Speakerbuzz }  ; [] |150| 
     476                            .dwpsn  file "../Program_PushButton.c",line 151,column 6,is_stmt,isa 1
     477                    $C$DW$38        .dwtag  DW_TAG_TI_branch
     478                            .dwattr $C$DW$38, DW_AT_low_pc(0x00)
     479                            .dwattr $C$DW$38, DW_AT_name("Task_PushButton")
     480                            .dwattr $C$DW$38, DW_AT_TI_call
     481                    
     482 00000060 FFFEF7FF!         BL        Task_PushButton       ; [DPU_3_PIPE] |151|  ; [KEEP 32-BIT INS]
     483                            ; CALL OCCURS {Task_PushButton }  ; [] |151| 
     484                            .dwpsn  file "../Program_PushButton.c",line 147,column 13,is_stmt,isa 1
     485 00000064 E7F6              B         ||$C$L2||             ; [DPU_3_PIPE] |147|  ; [ORIG 16-BIT INS]
     486                            ; BRANCH OCCURS {||$C$L2||}      ; [] |147| 
     487                    ;* --------------------------------------------------------------------------*
     488                            .dwattr $C$DW$29, DW_AT_TI_end_file("../Program_PushButton.c")
     489                            .dwattr $C$DW$29, DW_AT_TI_end_line(0x9a)
     490                            .dwattr $C$DW$29, DW_AT_TI_end_column(0x01)
     491                            .dwendentry
     492                            .dwendtag $C$DW$29
     493                    
     494                    ;******************************************************************************
     495                    ;* STRINGS                                                                    *
TI ARM Assembler PC v15.12.1 Wed Feb 08 15:17:48 2017

Tools Copyright (c) 1996-2015 Texas Instruments Incorporated
Program_PushButton.asm                                               PAGE   10

     496                    ;******************************************************************************
     497 00000066                   .sect   ".text"
     498                            .align  4
     499 00000068 53        ||$C$SL1||:     .string "Shafeen Hossain",0
         00000069 68       
         0000006a 61       
         0000006b 66       
         0000006c 65       
         0000006d 65       
         0000006e 6E       
         0000006f 20       
         00000070 48       
         00000071 6F       
         00000072 73       
         00000073 73       
         00000074 61       
         00000075 69       
         00000076 6E       
         00000077 00       
     500                    ;******************************************************************************
     501                    ;* CONSTANT TABLE                                                             *
     502                    ;******************************************************************************
     503 00000078                   .sect   ".text"
     504                            .align  4
     505 00000076 0000006E! ||$C$CON1||:    .bits   SysTickCount_Nbr,32
         0000007a 00000000 
     506                            .align  4
     507 0000007a 00000000! ||$C$CON2||:    .bits   OLED_Initialized,32
         0000007e 00000000 
     508                            .align  4
     509 0000007e 42400000  ||$C$CON3||:    .bits   1000000,32
         00000082 0000000F 
     510                            .align  4
     511 00000082 0380000F  ||$C$CON4||:    .bits   29361024,32
         00000086 000001C0 
     512                            .align  4
     513 00000086 000001C0! ||$C$CON5||:    .bits   g_ulSystemClock,32
         0000008a 00000000 
     514                            .align  4
     515 0000008a 00000000! ||$C$CON6||:    .bits   SysTickFrequency_Nbr,32
         0000008e 00000000 
     516                    ;*****************************************************************************
     517                    ;* UNDEFINED EXTERNAL REFERENCES                                             *
     518                    ;*****************************************************************************
     519                            .global SysCtlClockSet
     520                            .global SysCtlClockGet
     521                            .global SysTickEnable
     522                            .global SysTickIntEnable
     523                            .global SysTickPeriodSet
     524                            .global RIT128x96x4StringDraw
     525                            .global RIT128x96x4Init
     526                            .global Task_LEDBlink
     527                            .global Task_ReportSysTick
     528                            .global Task_Speakerbuzz
     529                            .global Task_PushButton
TI ARM Assembler PC v15.12.1 Wed Feb 08 15:17:48 2017

Tools Copyright (c) 1996-2015 Texas Instruments Incorporated
Program_PushButton.asm                                               PAGE   11

     530                    
     531                    ;******************************************************************************
     532                    ;* BUILD ATTRIBUTES                                                           *
     533                    ;******************************************************************************
     534                            .battr "aeabi", Tag_File, 1, Tag_ABI_PCS_wchar_t(2)
     535                            .battr "aeabi", Tag_File, 1, Tag_ABI_FP_rounding(0)
     536                            .battr "aeabi", Tag_File, 1, Tag_ABI_FP_denormal(0)
     537                            .battr "aeabi", Tag_File, 1, Tag_ABI_FP_exceptions(0)
     538                            .battr "aeabi", Tag_File, 1, Tag_ABI_FP_number_model(1)
     539                            .battr "aeabi", Tag_File, 1, Tag_ABI_enum_size(0)
     540                            .battr "aeabi", Tag_File, 1, Tag_ABI_optimization_goals(5)
     541                            .battr "aeabi", Tag_File, 1, Tag_ABI_FP_optimization_goals(0)
     542                            .battr "TI", Tag_File, 1, Tag_Bitfield_layout(2)
     543                            .battr "TI", Tag_File, 1, Tag_FP_interface(1)
     544                    
     545                    ;******************************************************************************
     546                    ;* TYPE INFORMATION                                                           *
     547                    ;******************************************************************************
     548                    
     549                    $C$DW$T$20      .dwtag  DW_TAG_structure_type
     550                            .dwattr $C$DW$T$20, DW_AT_byte_size(0x18)
     551                    $C$DW$39        .dwtag  DW_TAG_member
     552                            .dwattr $C$DW$39, DW_AT_type(*$C$DW$T$10)
     553                            .dwattr $C$DW$39, DW_AT_name("fd")
     554                            .dwattr $C$DW$39, DW_AT_TI_symbol_name("fd")
     555                            .dwattr $C$DW$39, DW_AT_data_member_location[DW_OP_plus_uconst 0x0]
     556                            .dwattr $C$DW$39, DW_AT_accessibility(DW_ACCESS_public)
     557                            .dwattr $C$DW$39, DW_AT_decl_file("C:/TI_CodeComposer/ccsv6/tools/compiler/ti-cgt-arm_15.12.1.
     558                            .dwattr $C$DW$39, DW_AT_decl_line(0x5c)
     559                            .dwattr $C$DW$39, DW_AT_decl_column(0x0b)
     560                    
     561                    $C$DW$40        .dwtag  DW_TAG_member
     562                            .dwattr $C$DW$40, DW_AT_type(*$C$DW$T$19)
     563                            .dwattr $C$DW$40, DW_AT_name("buf")
     564                            .dwattr $C$DW$40, DW_AT_TI_symbol_name("buf")
     565                            .dwattr $C$DW$40, DW_AT_data_member_location[DW_OP_plus_uconst 0x4]
     566                            .dwattr $C$DW$40, DW_AT_accessibility(DW_ACCESS_public)
     567                            .dwattr $C$DW$40, DW_AT_decl_file("C:/TI_CodeComposer/ccsv6/tools/compiler/ti-cgt-arm_15.12.1.
     568                            .dwattr $C$DW$40, DW_AT_decl_line(0x5d)
     569                            .dwattr $C$DW$40, DW_AT_decl_column(0x16)
     570                    
     571                    $C$DW$41        .dwtag  DW_TAG_member
     572                            .dwattr $C$DW$41, DW_AT_type(*$C$DW$T$19)
     573                            .dwattr $C$DW$41, DW_AT_name("pos")
     574                            .dwattr $C$DW$41, DW_AT_TI_symbol_name("pos")
     575                            .dwattr $C$DW$41, DW_AT_data_member_location[DW_OP_plus_uconst 0x8]
     576                            .dwattr $C$DW$41, DW_AT_accessibility(DW_ACCESS_public)
     577                            .dwattr $C$DW$41, DW_AT_decl_file("C:/TI_CodeComposer/ccsv6/tools/compiler/ti-cgt-arm_15.12.1.
     578                            .dwattr $C$DW$41, DW_AT_decl_line(0x5e)
     579                            .dwattr $C$DW$41, DW_AT_decl_column(0x16)
     580                    
     581                    $C$DW$42        .dwtag  DW_TAG_member
     582                            .dwattr $C$DW$42, DW_AT_type(*$C$DW$T$19)
     583                            .dwattr $C$DW$42, DW_AT_name("bufend")
     584                            .dwattr $C$DW$42, DW_AT_TI_symbol_name("bufend")
TI ARM Assembler PC v15.12.1 Wed Feb 08 15:17:48 2017

Tools Copyright (c) 1996-2015 Texas Instruments Incorporated
Program_PushButton.asm                                               PAGE   12

     585                            .dwattr $C$DW$42, DW_AT_data_member_location[DW_OP_plus_uconst 0xc]
     586                            .dwattr $C$DW$42, DW_AT_accessibility(DW_ACCESS_public)
     587                            .dwattr $C$DW$42, DW_AT_decl_file("C:/TI_CodeComposer/ccsv6/tools/compiler/ti-cgt-arm_15.12.1.
     588                            .dwattr $C$DW$42, DW_AT_decl_line(0x5f)
     589                            .dwattr $C$DW$42, DW_AT_decl_column(0x16)
     590                    
     591                    $C$DW$43        .dwtag  DW_TAG_member
     592                            .dwattr $C$DW$43, DW_AT_type(*$C$DW$T$19)
     593                            .dwattr $C$DW$43, DW_AT_name("buff_stop")
     594                            .dwattr $C$DW$43, DW_AT_TI_symbol_name("buff_stop")
     595                            .dwattr $C$DW$43, DW_AT_data_member_location[DW_OP_plus_uconst 0x10]
     596                            .dwattr $C$DW$43, DW_AT_accessibility(DW_ACCESS_public)
     597                            .dwattr $C$DW$43, DW_AT_decl_file("C:/TI_CodeComposer/ccsv6/tools/compiler/ti-cgt-arm_15.12.1.
     598                            .dwattr $C$DW$43, DW_AT_decl_line(0x60)
     599                            .dwattr $C$DW$43, DW_AT_decl_column(0x16)
     600                    
     601                    $C$DW$44        .dwtag  DW_TAG_member
     602                            .dwattr $C$DW$44, DW_AT_type(*$C$DW$T$11)
     603                            .dwattr $C$DW$44, DW_AT_name("flags")
     604                            .dwattr $C$DW$44, DW_AT_TI_symbol_name("flags")
     605                            .dwattr $C$DW$44, DW_AT_data_member_location[DW_OP_plus_uconst 0x14]
     606                            .dwattr $C$DW$44, DW_AT_accessibility(DW_ACCESS_public)
     607                            .dwattr $C$DW$44, DW_AT_decl_file("C:/TI_CodeComposer/ccsv6/tools/compiler/ti-cgt-arm_15.12.1.
     608                            .dwattr $C$DW$44, DW_AT_decl_line(0x61)
     609                            .dwattr $C$DW$44, DW_AT_decl_column(0x16)
     610                    
     611                            .dwattr $C$DW$T$20, DW_AT_decl_file("C:/TI_CodeComposer/ccsv6/tools/compiler/ti-cgt-arm_15.12.
     612                            .dwattr $C$DW$T$20, DW_AT_decl_line(0x5b)
     613                            .dwattr $C$DW$T$20, DW_AT_decl_column(0x10)
     614                            .dwendtag $C$DW$T$20
     615                    
     616                    $C$DW$T$22      .dwtag  DW_TAG_typedef
     617                            .dwattr $C$DW$T$22, DW_AT_name("FILE")
     618                            .dwattr $C$DW$T$22, DW_AT_type(*$C$DW$T$20)
     619                            .dwattr $C$DW$T$22, DW_AT_language(DW_LANG_C)
     620                            .dwattr $C$DW$T$22, DW_AT_decl_file("C:/TI_CodeComposer/ccsv6/tools/compiler/ti-cgt-arm_15.12.
     621                            .dwattr $C$DW$T$22, DW_AT_decl_line(0x62)
     622                            .dwattr $C$DW$T$22, DW_AT_decl_column(0x03)
     623                    
     624                    $C$DW$T$2       .dwtag  DW_TAG_unspecified_type
     625                            .dwattr $C$DW$T$2, DW_AT_name("void")
     626                    
     627                    $C$DW$T$3       .dwtag  DW_TAG_pointer_type
     628                            .dwattr $C$DW$T$3, DW_AT_type(*$C$DW$T$2)
     629                            .dwattr $C$DW$T$3, DW_AT_address_class(0x20)
     630                    
     631                    $C$DW$T$4       .dwtag  DW_TAG_base_type
     632                            .dwattr $C$DW$T$4, DW_AT_encoding(DW_ATE_boolean)
     633                            .dwattr $C$DW$T$4, DW_AT_name("bool")
     634                            .dwattr $C$DW$T$4, DW_AT_byte_size(0x01)
     635                    
     636                    $C$DW$T$5       .dwtag  DW_TAG_base_type
     637                            .dwattr $C$DW$T$5, DW_AT_encoding(DW_ATE_signed_char)
     638                            .dwattr $C$DW$T$5, DW_AT_name("signed char")
     639                            .dwattr $C$DW$T$5, DW_AT_byte_size(0x01)
TI ARM Assembler PC v15.12.1 Wed Feb 08 15:17:48 2017

Tools Copyright (c) 1996-2015 Texas Instruments Incorporated
Program_PushButton.asm                                               PAGE   13

     640                    
     641                    $C$DW$T$34      .dwtag  DW_TAG_typedef
     642                            .dwattr $C$DW$T$34, DW_AT_name("int8_t")
     643                            .dwattr $C$DW$T$34, DW_AT_type(*$C$DW$T$5)
     644                            .dwattr $C$DW$T$34, DW_AT_language(DW_LANG_C)
     645                            .dwattr $C$DW$T$34, DW_AT_decl_file("C:/TI_CodeComposer/ccsv6/tools/compiler/ti-cgt-arm_15.12.
     646                            .dwattr $C$DW$T$34, DW_AT_decl_line(0x2a)
     647                            .dwattr $C$DW$T$34, DW_AT_decl_column(0x1d)
     648                    
     649                    $C$DW$T$35      .dwtag  DW_TAG_typedef
     650                            .dwattr $C$DW$T$35, DW_AT_name("int_least8_t")
     651                            .dwattr $C$DW$T$35, DW_AT_type(*$C$DW$T$34)
     652                            .dwattr $C$DW$T$35, DW_AT_language(DW_LANG_C)
     653                            .dwattr $C$DW$T$35, DW_AT_decl_file("C:/TI_CodeComposer/ccsv6/tools/compiler/ti-cgt-arm_15.12.
     654                            .dwattr $C$DW$T$35, DW_AT_decl_line(0x37)
     655                            .dwattr $C$DW$T$35, DW_AT_decl_column(0x17)
     656                    
     657                    $C$DW$T$6       .dwtag  DW_TAG_base_type
     658                            .dwattr $C$DW$T$6, DW_AT_encoding(DW_ATE_unsigned_char)
     659                            .dwattr $C$DW$T$6, DW_AT_name("unsigned char")
     660                            .dwattr $C$DW$T$6, DW_AT_byte_size(0x01)
     661                    
     662                    $C$DW$T$19      .dwtag  DW_TAG_pointer_type
     663                            .dwattr $C$DW$T$19, DW_AT_type(*$C$DW$T$6)
     664                            .dwattr $C$DW$T$19, DW_AT_address_class(0x20)
     665                    
     666                    $C$DW$T$36      .dwtag  DW_TAG_typedef
     667                            .dwattr $C$DW$T$36, DW_AT_name("tBoolean")
     668                            .dwattr $C$DW$T$36, DW_AT_type(*$C$DW$T$6)
     669                            .dwattr $C$DW$T$36, DW_AT_language(DW_LANG_C)
     670                            .dwattr $C$DW$T$36, DW_AT_decl_file("C:/TI_CodeComposer/StellarisWare-LM3S1968/inc/hw_types.h"
     671                            .dwattr $C$DW$T$36, DW_AT_decl_line(0x30)
     672                            .dwattr $C$DW$T$36, DW_AT_decl_column(0x17)
     673                    
     674                    $C$DW$T$37      .dwtag  DW_TAG_typedef
     675                            .dwattr $C$DW$T$37, DW_AT_name("uint8_t")
     676                            .dwattr $C$DW$T$37, DW_AT_type(*$C$DW$T$6)
     677                            .dwattr $C$DW$T$37, DW_AT_language(DW_LANG_C)
     678                            .dwattr $C$DW$T$37, DW_AT_decl_file("C:/TI_CodeComposer/ccsv6/tools/compiler/ti-cgt-arm_15.12.
     679                            .dwattr $C$DW$T$37, DW_AT_decl_line(0x2b)
     680                            .dwattr $C$DW$T$37, DW_AT_decl_column(0x1c)
     681                    
     682                    $C$DW$T$38      .dwtag  DW_TAG_typedef
     683                            .dwattr $C$DW$T$38, DW_AT_name("uint_least8_t")
     684                            .dwattr $C$DW$T$38, DW_AT_type(*$C$DW$T$37)
     685                            .dwattr $C$DW$T$38, DW_AT_language(DW_LANG_C)
     686                            .dwattr $C$DW$T$38, DW_AT_decl_file("C:/TI_CodeComposer/ccsv6/tools/compiler/ti-cgt-arm_15.12.
     687                            .dwattr $C$DW$T$38, DW_AT_decl_line(0x38)
     688                            .dwattr $C$DW$T$38, DW_AT_decl_column(0x16)
     689                    
     690                    $C$DW$T$7       .dwtag  DW_TAG_base_type
     691                            .dwattr $C$DW$T$7, DW_AT_encoding(DW_ATE_signed_char)
     692                            .dwattr $C$DW$T$7, DW_AT_name("wchar_t")
     693                            .dwattr $C$DW$T$7, DW_AT_byte_size(0x02)
     694                    
TI ARM Assembler PC v15.12.1 Wed Feb 08 15:17:48 2017

Tools Copyright (c) 1996-2015 Texas Instruments Incorporated
Program_PushButton.asm                                               PAGE   14

     695                    $C$DW$T$8       .dwtag  DW_TAG_base_type
     696                            .dwattr $C$DW$T$8, DW_AT_encoding(DW_ATE_signed)
     697                            .dwattr $C$DW$T$8, DW_AT_name("short")
     698                            .dwattr $C$DW$T$8, DW_AT_byte_size(0x02)
     699                    
     700                    $C$DW$T$39      .dwtag  DW_TAG_typedef
     701                            .dwattr $C$DW$T$39, DW_AT_name("int16_t")
     702                            .dwattr $C$DW$T$39, DW_AT_type(*$C$DW$T$8)
     703                            .dwattr $C$DW$T$39, DW_AT_language(DW_LANG_C)
     704                            .dwattr $C$DW$T$39, DW_AT_decl_file("C:/TI_CodeComposer/ccsv6/tools/compiler/ti-cgt-arm_15.12.
     705                            .dwattr $C$DW$T$39, DW_AT_decl_line(0x2c)
     706                            .dwattr $C$DW$T$39, DW_AT_decl_column(0x1d)
     707                    
     708                    $C$DW$T$40      .dwtag  DW_TAG_typedef
     709                            .dwattr $C$DW$T$40, DW_AT_name("int_least16_t")
     710                            .dwattr $C$DW$T$40, DW_AT_type(*$C$DW$T$39)
     711                            .dwattr $C$DW$T$40, DW_AT_language(DW_LANG_C)
     712                            .dwattr $C$DW$T$40, DW_AT_decl_file("C:/TI_CodeComposer/ccsv6/tools/compiler/ti-cgt-arm_15.12.
     713                            .dwattr $C$DW$T$40, DW_AT_decl_line(0x3a)
     714                            .dwattr $C$DW$T$40, DW_AT_decl_column(0x17)
     715                    
     716                    $C$DW$T$9       .dwtag  DW_TAG_base_type
     717                            .dwattr $C$DW$T$9, DW_AT_encoding(DW_ATE_unsigned)
     718                            .dwattr $C$DW$T$9, DW_AT_name("unsigned short")
     719                            .dwattr $C$DW$T$9, DW_AT_byte_size(0x02)
     720                    
     721                    $C$DW$T$41      .dwtag  DW_TAG_typedef
     722                            .dwattr $C$DW$T$41, DW_AT_name("uint16_t")
     723                            .dwattr $C$DW$T$41, DW_AT_type(*$C$DW$T$9)
     724                            .dwattr $C$DW$T$41, DW_AT_language(DW_LANG_C)
     725                            .dwattr $C$DW$T$41, DW_AT_decl_file("C:/TI_CodeComposer/ccsv6/tools/compiler/ti-cgt-arm_15.12.
     726                            .dwattr $C$DW$T$41, DW_AT_decl_line(0x2d)
     727                            .dwattr $C$DW$T$41, DW_AT_decl_column(0x1c)
     728                    
     729                    $C$DW$T$42      .dwtag  DW_TAG_typedef
     730                            .dwattr $C$DW$T$42, DW_AT_name("uint_least16_t")
     731                            .dwattr $C$DW$T$42, DW_AT_type(*$C$DW$T$41)
     732                            .dwattr $C$DW$T$42, DW_AT_language(DW_LANG_C)
     733                            .dwattr $C$DW$T$42, DW_AT_decl_file("C:/TI_CodeComposer/ccsv6/tools/compiler/ti-cgt-arm_15.12.
     734                            .dwattr $C$DW$T$42, DW_AT_decl_line(0x3b)
     735                            .dwattr $C$DW$T$42, DW_AT_decl_column(0x16)
     736                    
     737                    $C$DW$T$43      .dwtag  DW_TAG_typedef
     738                            .dwattr $C$DW$T$43, DW_AT_name("wchar_t")
     739                            .dwattr $C$DW$T$43, DW_AT_type(*$C$DW$T$9)
     740                            .dwattr $C$DW$T$43, DW_AT_language(DW_LANG_C)
     741                            .dwattr $C$DW$T$43, DW_AT_decl_file("C:/TI_CodeComposer/ccsv6/tools/compiler/ti-cgt-arm_15.12.
     742                            .dwattr $C$DW$T$43, DW_AT_decl_line(0x41)
     743                            .dwattr $C$DW$T$43, DW_AT_decl_column(0x1a)
     744                    
     745                    $C$DW$T$10      .dwtag  DW_TAG_base_type
     746                            .dwattr $C$DW$T$10, DW_AT_encoding(DW_ATE_signed)
     747                            .dwattr $C$DW$T$10, DW_AT_name("int")
     748                            .dwattr $C$DW$T$10, DW_AT_byte_size(0x04)
     749                    
TI ARM Assembler PC v15.12.1 Wed Feb 08 15:17:48 2017

Tools Copyright (c) 1996-2015 Texas Instruments Incorporated
Program_PushButton.asm                                               PAGE   15

     750                    $C$DW$T$45      .dwtag  DW_TAG_typedef
     751                            .dwattr $C$DW$T$45, DW_AT_name("int32_t")
     752                            .dwattr $C$DW$T$45, DW_AT_type(*$C$DW$T$10)
     753                            .dwattr $C$DW$T$45, DW_AT_language(DW_LANG_C)
     754                            .dwattr $C$DW$T$45, DW_AT_decl_file("C:/TI_CodeComposer/ccsv6/tools/compiler/ti-cgt-arm_15.12.
     755                            .dwattr $C$DW$T$45, DW_AT_decl_line(0x2e)
     756                            .dwattr $C$DW$T$45, DW_AT_decl_column(0x1d)
     757                    
     758                    $C$DW$T$46      .dwtag  DW_TAG_typedef
     759                            .dwattr $C$DW$T$46, DW_AT_name("int_fast16_t")
     760                            .dwattr $C$DW$T$46, DW_AT_type(*$C$DW$T$45)
     761                            .dwattr $C$DW$T$46, DW_AT_language(DW_LANG_C)
     762                            .dwattr $C$DW$T$46, DW_AT_decl_file("C:/TI_CodeComposer/ccsv6/tools/compiler/ti-cgt-arm_15.12.
     763                            .dwattr $C$DW$T$46, DW_AT_decl_line(0x47)
     764                            .dwattr $C$DW$T$46, DW_AT_decl_column(0x17)
     765                    
     766                    $C$DW$T$47      .dwtag  DW_TAG_typedef
     767                            .dwattr $C$DW$T$47, DW_AT_name("int_fast32_t")
     768                            .dwattr $C$DW$T$47, DW_AT_type(*$C$DW$T$45)
     769                            .dwattr $C$DW$T$47, DW_AT_language(DW_LANG_C)
     770                            .dwattr $C$DW$T$47, DW_AT_decl_file("C:/TI_CodeComposer/ccsv6/tools/compiler/ti-cgt-arm_15.12.
     771                            .dwattr $C$DW$T$47, DW_AT_decl_line(0x4a)
     772                            .dwattr $C$DW$T$47, DW_AT_decl_column(0x17)
     773                    
     774                    $C$DW$T$48      .dwtag  DW_TAG_typedef
     775                            .dwattr $C$DW$T$48, DW_AT_name("int_fast8_t")
     776                            .dwattr $C$DW$T$48, DW_AT_type(*$C$DW$T$45)
     777                            .dwattr $C$DW$T$48, DW_AT_language(DW_LANG_C)
     778                            .dwattr $C$DW$T$48, DW_AT_decl_file("C:/TI_CodeComposer/ccsv6/tools/compiler/ti-cgt-arm_15.12.
     779                            .dwattr $C$DW$T$48, DW_AT_decl_line(0x45)
     780                            .dwattr $C$DW$T$48, DW_AT_decl_column(0x17)
     781                    
     782                    $C$DW$T$49      .dwtag  DW_TAG_typedef
     783                            .dwattr $C$DW$T$49, DW_AT_name("int_least32_t")
     784                            .dwattr $C$DW$T$49, DW_AT_type(*$C$DW$T$45)
     785                            .dwattr $C$DW$T$49, DW_AT_language(DW_LANG_C)
     786                            .dwattr $C$DW$T$49, DW_AT_decl_file("C:/TI_CodeComposer/ccsv6/tools/compiler/ti-cgt-arm_15.12.
     787                            .dwattr $C$DW$T$49, DW_AT_decl_line(0x3c)
     788                            .dwattr $C$DW$T$49, DW_AT_decl_column(0x17)
     789                    
     790                    $C$DW$T$50      .dwtag  DW_TAG_typedef
     791                            .dwattr $C$DW$T$50, DW_AT_name("intptr_t")
     792                            .dwattr $C$DW$T$50, DW_AT_type(*$C$DW$T$10)
     793                            .dwattr $C$DW$T$50, DW_AT_language(DW_LANG_C)
     794                            .dwattr $C$DW$T$50, DW_AT_decl_file("C:/TI_CodeComposer/ccsv6/tools/compiler/ti-cgt-arm_15.12.
     795                            .dwattr $C$DW$T$50, DW_AT_decl_line(0x52)
     796                            .dwattr $C$DW$T$50, DW_AT_decl_column(0x1a)
     797                    
     798                    $C$DW$T$51      .dwtag  DW_TAG_typedef
     799                            .dwattr $C$DW$T$51, DW_AT_name("ptrdiff_t")
     800                            .dwattr $C$DW$T$51, DW_AT_type(*$C$DW$T$10)
     801                            .dwattr $C$DW$T$51, DW_AT_language(DW_LANG_C)
     802                            .dwattr $C$DW$T$51, DW_AT_decl_file("C:/TI_CodeComposer/ccsv6/tools/compiler/ti-cgt-arm_15.12.
     803                            .dwattr $C$DW$T$51, DW_AT_decl_line(0x36)
     804                            .dwattr $C$DW$T$51, DW_AT_decl_column(0x1c)
TI ARM Assembler PC v15.12.1 Wed Feb 08 15:17:48 2017

Tools Copyright (c) 1996-2015 Texas Instruments Incorporated
Program_PushButton.asm                                               PAGE   16

     805                    
     806                    $C$DW$T$11      .dwtag  DW_TAG_base_type
     807                            .dwattr $C$DW$T$11, DW_AT_encoding(DW_ATE_unsigned)
     808                            .dwattr $C$DW$T$11, DW_AT_name("unsigned int")
     809                            .dwattr $C$DW$T$11, DW_AT_byte_size(0x04)
     810                    
     811                    $C$DW$T$52      .dwtag  DW_TAG_typedef
     812                            .dwattr $C$DW$T$52, DW_AT_name("size_t")
     813                            .dwattr $C$DW$T$52, DW_AT_type(*$C$DW$T$11)
     814                            .dwattr $C$DW$T$52, DW_AT_language(DW_LANG_C)
     815                            .dwattr $C$DW$T$52, DW_AT_decl_file("C:/TI_CodeComposer/ccsv6/tools/compiler/ti-cgt-arm_15.12.
     816                            .dwattr $C$DW$T$52, DW_AT_decl_line(0x3a)
     817                            .dwattr $C$DW$T$52, DW_AT_decl_column(0x19)
     818                    
     819                    $C$DW$T$53      .dwtag  DW_TAG_typedef
     820                            .dwattr $C$DW$T$53, DW_AT_name("uint32_t")
     821                            .dwattr $C$DW$T$53, DW_AT_type(*$C$DW$T$11)
     822                            .dwattr $C$DW$T$53, DW_AT_language(DW_LANG_C)
     823                            .dwattr $C$DW$T$53, DW_AT_decl_file("C:/TI_CodeComposer/ccsv6/tools/compiler/ti-cgt-arm_15.12.
     824                            .dwattr $C$DW$T$53, DW_AT_decl_line(0x2f)
     825                            .dwattr $C$DW$T$53, DW_AT_decl_column(0x1c)
     826                    
     827                    $C$DW$T$54      .dwtag  DW_TAG_volatile_type
     828                            .dwattr $C$DW$T$54, DW_AT_type(*$C$DW$T$53)
     829                    
     830                    $C$DW$T$55      .dwtag  DW_TAG_typedef
     831                            .dwattr $C$DW$T$55, DW_AT_name("uint_fast16_t")
     832                            .dwattr $C$DW$T$55, DW_AT_type(*$C$DW$T$53)
     833                            .dwattr $C$DW$T$55, DW_AT_language(DW_LANG_C)
     834                            .dwattr $C$DW$T$55, DW_AT_decl_file("C:/TI_CodeComposer/ccsv6/tools/compiler/ti-cgt-arm_15.12.
     835                            .dwattr $C$DW$T$55, DW_AT_decl_line(0x48)
     836                            .dwattr $C$DW$T$55, DW_AT_decl_column(0x16)
     837                    
     838                    $C$DW$T$56      .dwtag  DW_TAG_typedef
     839                            .dwattr $C$DW$T$56, DW_AT_name("uint_fast32_t")
     840                            .dwattr $C$DW$T$56, DW_AT_type(*$C$DW$T$53)
     841                            .dwattr $C$DW$T$56, DW_AT_language(DW_LANG_C)
     842                            .dwattr $C$DW$T$56, DW_AT_decl_file("C:/TI_CodeComposer/ccsv6/tools/compiler/ti-cgt-arm_15.12.
     843                            .dwattr $C$DW$T$56, DW_AT_decl_line(0x4b)
     844                            .dwattr $C$DW$T$56, DW_AT_decl_column(0x16)
     845                    
     846                    $C$DW$T$57      .dwtag  DW_TAG_typedef
     847                            .dwattr $C$DW$T$57, DW_AT_name("uint_fast8_t")
     848                            .dwattr $C$DW$T$57, DW_AT_type(*$C$DW$T$53)
     849                            .dwattr $C$DW$T$57, DW_AT_language(DW_LANG_C)
     850                            .dwattr $C$DW$T$57, DW_AT_decl_file("C:/TI_CodeComposer/ccsv6/tools/compiler/ti-cgt-arm_15.12.
     851                            .dwattr $C$DW$T$57, DW_AT_decl_line(0x46)
     852                            .dwattr $C$DW$T$57, DW_AT_decl_column(0x16)
     853                    
     854                    $C$DW$T$58      .dwtag  DW_TAG_typedef
     855                            .dwattr $C$DW$T$58, DW_AT_name("uint_least32_t")
     856                            .dwattr $C$DW$T$58, DW_AT_type(*$C$DW$T$53)
     857                            .dwattr $C$DW$T$58, DW_AT_language(DW_LANG_C)
     858                            .dwattr $C$DW$T$58, DW_AT_decl_file("C:/TI_CodeComposer/ccsv6/tools/compiler/ti-cgt-arm_15.12.
     859                            .dwattr $C$DW$T$58, DW_AT_decl_line(0x3d)
TI ARM Assembler PC v15.12.1 Wed Feb 08 15:17:48 2017

Tools Copyright (c) 1996-2015 Texas Instruments Incorporated
Program_PushButton.asm                                               PAGE   17

     860                            .dwattr $C$DW$T$58, DW_AT_decl_column(0x16)
     861                    
     862                    $C$DW$T$59      .dwtag  DW_TAG_typedef
     863                            .dwattr $C$DW$T$59, DW_AT_name("uintptr_t")
     864                            .dwattr $C$DW$T$59, DW_AT_type(*$C$DW$T$11)
     865                            .dwattr $C$DW$T$59, DW_AT_language(DW_LANG_C)
     866                            .dwattr $C$DW$T$59, DW_AT_decl_file("C:/TI_CodeComposer/ccsv6/tools/compiler/ti-cgt-arm_15.12.
     867                            .dwattr $C$DW$T$59, DW_AT_decl_line(0x53)
     868                            .dwattr $C$DW$T$59, DW_AT_decl_column(0x1a)
     869                    
     870                    $C$DW$T$12      .dwtag  DW_TAG_base_type
     871                            .dwattr $C$DW$T$12, DW_AT_encoding(DW_ATE_signed)
     872                            .dwattr $C$DW$T$12, DW_AT_name("long")
     873                            .dwattr $C$DW$T$12, DW_AT_byte_size(0x04)
     874                    
     875                    $C$DW$T$60      .dwtag  DW_TAG_typedef
     876                            .dwattr $C$DW$T$60, DW_AT_name("fpos_t")
     877                            .dwattr $C$DW$T$60, DW_AT_type(*$C$DW$T$12)
     878                            .dwattr $C$DW$T$60, DW_AT_language(DW_LANG_C)
     879                            .dwattr $C$DW$T$60, DW_AT_decl_file("C:/TI_CodeComposer/ccsv6/tools/compiler/ti-cgt-arm_15.12.
     880                            .dwattr $C$DW$T$60, DW_AT_decl_line(0x6e)
     881                            .dwattr $C$DW$T$60, DW_AT_decl_column(0x0e)
     882                    
     883                    $C$DW$T$13      .dwtag  DW_TAG_base_type
     884                            .dwattr $C$DW$T$13, DW_AT_encoding(DW_ATE_unsigned)
     885                            .dwattr $C$DW$T$13, DW_AT_name("unsigned long")
     886                            .dwattr $C$DW$T$13, DW_AT_byte_size(0x04)
     887                    
     888                    $C$DW$T$14      .dwtag  DW_TAG_base_type
     889                            .dwattr $C$DW$T$14, DW_AT_encoding(DW_ATE_signed)
     890                            .dwattr $C$DW$T$14, DW_AT_name("long long")
     891                            .dwattr $C$DW$T$14, DW_AT_byte_size(0x08)
     892                    
     893                    $C$DW$T$63      .dwtag  DW_TAG_typedef
     894                            .dwattr $C$DW$T$63, DW_AT_name("int64_t")
     895                            .dwattr $C$DW$T$63, DW_AT_type(*$C$DW$T$14)
     896                            .dwattr $C$DW$T$63, DW_AT_language(DW_LANG_C)
     897                            .dwattr $C$DW$T$63, DW_AT_decl_file("C:/TI_CodeComposer/ccsv6/tools/compiler/ti-cgt-arm_15.12.
     898                            .dwattr $C$DW$T$63, DW_AT_decl_line(0x32)
     899                            .dwattr $C$DW$T$63, DW_AT_decl_column(0x21)
     900                    
     901                    $C$DW$T$64      .dwtag  DW_TAG_typedef
     902                            .dwattr $C$DW$T$64, DW_AT_name("int_fast64_t")
     903                            .dwattr $C$DW$T$64, DW_AT_type(*$C$DW$T$63)
     904                            .dwattr $C$DW$T$64, DW_AT_language(DW_LANG_C)
     905                            .dwattr $C$DW$T$64, DW_AT_decl_file("C:/TI_CodeComposer/ccsv6/tools/compiler/ti-cgt-arm_15.12.
     906                            .dwattr $C$DW$T$64, DW_AT_decl_line(0x4e)
     907                            .dwattr $C$DW$T$64, DW_AT_decl_column(0x17)
     908                    
     909                    $C$DW$T$65      .dwtag  DW_TAG_typedef
     910                            .dwattr $C$DW$T$65, DW_AT_name("int_least64_t")
     911                            .dwattr $C$DW$T$65, DW_AT_type(*$C$DW$T$63)
     912                            .dwattr $C$DW$T$65, DW_AT_language(DW_LANG_C)
     913                            .dwattr $C$DW$T$65, DW_AT_decl_file("C:/TI_CodeComposer/ccsv6/tools/compiler/ti-cgt-arm_15.12.
     914                            .dwattr $C$DW$T$65, DW_AT_decl_line(0x40)
TI ARM Assembler PC v15.12.1 Wed Feb 08 15:17:48 2017

Tools Copyright (c) 1996-2015 Texas Instruments Incorporated
Program_PushButton.asm                                               PAGE   18

     915                            .dwattr $C$DW$T$65, DW_AT_decl_column(0x17)
     916                    
     917                    $C$DW$T$66      .dwtag  DW_TAG_typedef
     918                            .dwattr $C$DW$T$66, DW_AT_name("intmax_t")
     919                            .dwattr $C$DW$T$66, DW_AT_type(*$C$DW$T$14)
     920                            .dwattr $C$DW$T$66, DW_AT_language(DW_LANG_C)
     921                            .dwattr $C$DW$T$66, DW_AT_decl_file("C:/TI_CodeComposer/ccsv6/tools/compiler/ti-cgt-arm_15.12.
     922                            .dwattr $C$DW$T$66, DW_AT_decl_line(0x56)
     923                            .dwattr $C$DW$T$66, DW_AT_decl_column(0x20)
     924                    
     925                    $C$DW$T$15      .dwtag  DW_TAG_base_type
     926                            .dwattr $C$DW$T$15, DW_AT_encoding(DW_ATE_unsigned)
     927                            .dwattr $C$DW$T$15, DW_AT_name("unsigned long long")
     928                            .dwattr $C$DW$T$15, DW_AT_byte_size(0x08)
     929                    
     930                    $C$DW$T$67      .dwtag  DW_TAG_typedef
     931                            .dwattr $C$DW$T$67, DW_AT_name("uint64_t")
     932                            .dwattr $C$DW$T$67, DW_AT_type(*$C$DW$T$15)
     933                            .dwattr $C$DW$T$67, DW_AT_language(DW_LANG_C)
     934                            .dwattr $C$DW$T$67, DW_AT_decl_file("C:/TI_CodeComposer/ccsv6/tools/compiler/ti-cgt-arm_15.12.
     935                            .dwattr $C$DW$T$67, DW_AT_decl_line(0x33)
     936                            .dwattr $C$DW$T$67, DW_AT_decl_column(0x20)
     937                    
     938                    $C$DW$T$68      .dwtag  DW_TAG_typedef
     939                            .dwattr $C$DW$T$68, DW_AT_name("uint_fast64_t")
     940                            .dwattr $C$DW$T$68, DW_AT_type(*$C$DW$T$67)
     941                            .dwattr $C$DW$T$68, DW_AT_language(DW_LANG_C)
     942                            .dwattr $C$DW$T$68, DW_AT_decl_file("C:/TI_CodeComposer/ccsv6/tools/compiler/ti-cgt-arm_15.12.
     943                            .dwattr $C$DW$T$68, DW_AT_decl_line(0x4f)
     944                            .dwattr $C$DW$T$68, DW_AT_decl_column(0x16)
     945                    
     946                    $C$DW$T$69      .dwtag  DW_TAG_typedef
     947                            .dwattr $C$DW$T$69, DW_AT_name("uint_least64_t")
     948                            .dwattr $C$DW$T$69, DW_AT_type(*$C$DW$T$67)
     949                            .dwattr $C$DW$T$69, DW_AT_language(DW_LANG_C)
     950                            .dwattr $C$DW$T$69, DW_AT_decl_file("C:/TI_CodeComposer/ccsv6/tools/compiler/ti-cgt-arm_15.12.
     951                            .dwattr $C$DW$T$69, DW_AT_decl_line(0x41)
     952                            .dwattr $C$DW$T$69, DW_AT_decl_column(0x16)
     953                    
     954                    $C$DW$T$70      .dwtag  DW_TAG_typedef
     955                            .dwattr $C$DW$T$70, DW_AT_name("uintmax_t")
     956                            .dwattr $C$DW$T$70, DW_AT_type(*$C$DW$T$15)
     957                            .dwattr $C$DW$T$70, DW_AT_language(DW_LANG_C)
     958                            .dwattr $C$DW$T$70, DW_AT_decl_file("C:/TI_CodeComposer/ccsv6/tools/compiler/ti-cgt-arm_15.12.
     959                            .dwattr $C$DW$T$70, DW_AT_decl_line(0x57)
     960                            .dwattr $C$DW$T$70, DW_AT_decl_column(0x20)
     961                    
     962                    $C$DW$T$16      .dwtag  DW_TAG_base_type
     963                            .dwattr $C$DW$T$16, DW_AT_encoding(DW_ATE_float)
     964                            .dwattr $C$DW$T$16, DW_AT_name("float")
     965                            .dwattr $C$DW$T$16, DW_AT_byte_size(0x04)
     966                    
     967                    $C$DW$T$17      .dwtag  DW_TAG_base_type
     968                            .dwattr $C$DW$T$17, DW_AT_encoding(DW_ATE_float)
     969                            .dwattr $C$DW$T$17, DW_AT_name("double")
TI ARM Assembler PC v15.12.1 Wed Feb 08 15:17:48 2017

Tools Copyright (c) 1996-2015 Texas Instruments Incorporated
Program_PushButton.asm                                               PAGE   19

     970                            .dwattr $C$DW$T$17, DW_AT_byte_size(0x08)
     971                    
     972                    $C$DW$T$18      .dwtag  DW_TAG_base_type
     973                            .dwattr $C$DW$T$18, DW_AT_encoding(DW_ATE_float)
     974                            .dwattr $C$DW$T$18, DW_AT_name("long double")
     975                            .dwattr $C$DW$T$18, DW_AT_byte_size(0x08)
     976                    
     977                    $C$DW$T$28      .dwtag  DW_TAG_const_type
     978                            .dwattr $C$DW$T$28, DW_AT_type(*$C$DW$T$6)
     979                    
     980                    $C$DW$T$29      .dwtag  DW_TAG_pointer_type
     981                            .dwattr $C$DW$T$29, DW_AT_type(*$C$DW$T$28)
     982                            .dwattr $C$DW$T$29, DW_AT_address_class(0x20)
     983                    
     984                    $C$DW$T$73      .dwtag  DW_TAG_base_type
     985                            .dwattr $C$DW$T$73, DW_AT_encoding(DW_ATE_unsigned_char)
     986                            .dwattr $C$DW$T$73, DW_AT_name("unsigned char")
     987                            .dwattr $C$DW$T$73, DW_AT_byte_size(0x01)
     988                    
     989                    
     990                    $C$DW$T$21      .dwtag  DW_TAG_structure_type
     991                            .dwattr $C$DW$T$21, DW_AT_name("__va_list")
     992                            .dwattr $C$DW$T$21, DW_AT_byte_size(0x04)
     993                    $C$DW$45        .dwtag  DW_TAG_member
     994                            .dwattr $C$DW$45, DW_AT_type(*$C$DW$T$3)
     995                            .dwattr $C$DW$45, DW_AT_name("__ap")
     996                            .dwattr $C$DW$45, DW_AT_TI_symbol_name("__ap")
     997                            .dwattr $C$DW$45, DW_AT_data_member_location[DW_OP_plus_uconst 0x0]
     998                            .dwattr $C$DW$45, DW_AT_accessibility(DW_ACCESS_public)
     999                            .dwattr $C$DW$45, DW_AT_decl_file("C:/TI_CodeComposer/ccsv6/tools/compiler/ti-cgt-arm_15.12.1.
    1000                            .dwattr $C$DW$45, DW_AT_decl_line(0x38)
    1001                            .dwattr $C$DW$45, DW_AT_decl_column(0x0c)
    1002                    
    1003                            .dwattr $C$DW$T$21, DW_AT_decl_file("C:/TI_CodeComposer/ccsv6/tools/compiler/ti-cgt-arm_15.12.
    1004                            .dwattr $C$DW$T$21, DW_AT_decl_line(0x37)
    1005                            .dwattr $C$DW$T$21, DW_AT_decl_column(0x10)
    1006                            .dwendtag $C$DW$T$21
    1007                    
    1008                    $C$DW$T$74      .dwtag  DW_TAG_typedef
    1009                            .dwattr $C$DW$T$74, DW_AT_name("va_list")
    1010                            .dwattr $C$DW$T$74, DW_AT_type(*$C$DW$T$21)
    1011                            .dwattr $C$DW$T$74, DW_AT_language(DW_LANG_C)
    1012                            .dwattr $C$DW$T$74, DW_AT_decl_file("C:/TI_CodeComposer/ccsv6/tools/compiler/ti-cgt-arm_15.12.
    1013                            .dwattr $C$DW$T$74, DW_AT_decl_line(0x39)
    1014                            .dwattr $C$DW$T$74, DW_AT_decl_column(0x03)
    1015                    
    1016                            .dwattr $C$DW$CU, DW_AT_language(DW_LANG_C)
    1017                    
    1018                    ;***************************************************************
    1019                    ;* DWARF CIE ENTRIES                                           *
    1020                    ;***************************************************************
    1021                    
    1022                    $C$DW$CIE       .dwcie 14
    1023                            .dwcfi  cfa_register, 13
    1024                            .dwcfi  cfa_offset, 0
TI ARM Assembler PC v15.12.1 Wed Feb 08 15:17:48 2017

Tools Copyright (c) 1996-2015 Texas Instruments Incorporated
Program_PushButton.asm                                               PAGE   20

    1025                            .dwcfi  undefined, 0
    1026                            .dwcfi  undefined, 1
    1027                            .dwcfi  undefined, 2
    1028                            .dwcfi  undefined, 3
    1029                            .dwcfi  same_value, 4
    1030                            .dwcfi  same_value, 5
    1031                            .dwcfi  same_value, 6
    1032                            .dwcfi  same_value, 7
    1033                            .dwcfi  same_value, 8
    1034                            .dwcfi  same_value, 9
    1035                            .dwcfi  same_value, 10
    1036                            .dwcfi  same_value, 11
    1037                            .dwcfi  undefined, 12
    1038                            .dwcfi  undefined, 13
    1039                            .dwcfi  undefined, 14
    1040                            .dwcfi  undefined, 14
    1041                            .dwcfi  undefined, 7
    1042                            .dwendentry
    1043                            .dwendtag $C$DW$CU
    1044                    

--------------------------
Thumb2 Statistics
--------------------------
Number of Thumb2 ins converted to Thumb = 0 (0%)
Number of Thumb ins in input = 27 (69%)
Number of Thumb2 ins encoded as Thumb2 = 12 (100%)
Number of Thumb2 ins converted to 2 OPND Thumb = 0


No Assembly Errors, No Assembly Warnings
