TI ARM Assembler PC v15.12.1 Wed Mar 01 14:56:09 2017

Tools Copyright (c) 1996-2015 Texas Instruments Incorporated
Task_ReportSysTick.asm                                               PAGE    1

       1                    ;******************************************************************************
       2                    ;* TI ARM C/C++ Codegen                                       PC v15.12.1.LTS *
       3                    ;* Date/Time created: Wed Mar 01 14:56:08 2017                                *
       4                    ;******************************************************************************
       5                            .compiler_opts --abi=eabi --arm_vmrs_si_workaround=off --code_state=16 --diag_wrap=off --disab
       6 00000000                   .thumb
       7                    
       8                    $C$DW$CU        .dwtag  DW_TAG_compile_unit
       9                            .dwattr $C$DW$CU, DW_AT_name("../Tasks/Task_ReportSysTick.c")
      10                            .dwattr $C$DW$CU, DW_AT_producer("TI TI ARM C/C++ Codegen PC v15.12.1.LTS Copyright (c) 1996-2
      11                            .dwattr $C$DW$CU, DW_AT_TI_version(0x01)
      12                            .dwattr $C$DW$CU, DW_AT_comp_dir("H:\EECS_388\TI_ARM_Projects\ADC_Pot\Debug")
      13                    
      14                    $C$DW$1 .dwtag  DW_TAG_subprogram
      15                            .dwattr $C$DW$1, DW_AT_name("RIT128x96x4StringDraw")
      16                            .dwattr $C$DW$1, DW_AT_TI_symbol_name("RIT128x96x4StringDraw")
      17                            .dwattr $C$DW$1, DW_AT_declaration
      18                            .dwattr $C$DW$1, DW_AT_external
      19                            .dwattr $C$DW$1, DW_AT_decl_file("H:/EECS_388/TI_ARM_Projects/ADC_Pot/Drivers/rit128x96x4.h")
      20                            .dwattr $C$DW$1, DW_AT_decl_line(0x23)
      21                            .dwattr $C$DW$1, DW_AT_decl_column(0x0d)
      22                    $C$DW$2 .dwtag  DW_TAG_formal_parameter
      23                            .dwattr $C$DW$2, DW_AT_type(*$C$DW$T$42)
      24                    
      25                    $C$DW$3 .dwtag  DW_TAG_formal_parameter
      26                            .dwattr $C$DW$3, DW_AT_type(*$C$DW$T$13)
      27                    
      28                    $C$DW$4 .dwtag  DW_TAG_formal_parameter
      29                            .dwattr $C$DW$4, DW_AT_type(*$C$DW$T$13)
      30                    
      31                    $C$DW$5 .dwtag  DW_TAG_formal_parameter
      32                            .dwattr $C$DW$5, DW_AT_type(*$C$DW$T$6)
      33                    
      34                            .dwendtag $C$DW$1
      35                    
      36                    
      37                    $C$DW$6 .dwtag  DW_TAG_subprogram
      38                            .dwattr $C$DW$6, DW_AT_name("vTaskDelay")
      39                            .dwattr $C$DW$6, DW_AT_TI_symbol_name("vTaskDelay")
      40                            .dwattr $C$DW$6, DW_AT_declaration
      41                            .dwattr $C$DW$6, DW_AT_external
      42                            .dwattr $C$DW$6, DW_AT_decl_file("H:/EECS_388/TI_ARM_Projects/ADC_Pot/Source/include/task.h")
      43                            .dwattr $C$DW$6, DW_AT_decl_line(0x22b)
      44                            .dwattr $C$DW$6, DW_AT_decl_column(0x06)
      45                    $C$DW$7 .dwtag  DW_TAG_formal_parameter
      46                            .dwattr $C$DW$7, DW_AT_type(*$C$DW$T$65)
      47                    
      48                            .dwendtag $C$DW$6
      49                    
      50                    
      51                    $C$DW$8 .dwtag  DW_TAG_subprogram
      52                            .dwattr $C$DW$8, DW_AT_name("xTaskGetTickCount")
      53                            .dwattr $C$DW$8, DW_AT_TI_symbol_name("xTaskGetTickCount")
      54                            .dwattr $C$DW$8, DW_AT_type(*$C$DW$T$32)
      55                            .dwattr $C$DW$8, DW_AT_declaration
TI ARM Assembler PC v15.12.1 Wed Mar 01 14:56:09 2017

Tools Copyright (c) 1996-2015 Texas Instruments Incorporated
Task_ReportSysTick.asm                                               PAGE    2

      56                            .dwattr $C$DW$8, DW_AT_external
      57                            .dwattr $C$DW$8, DW_AT_decl_file("H:/EECS_388/TI_ARM_Projects/ADC_Pot/Source/include/task.h")
      58                            .dwattr $C$DW$8, DW_AT_decl_line(0x42b)
      59                            .dwattr $C$DW$8, DW_AT_decl_column(0x0c)
      60                            .dwendtag $C$DW$8
      61                    
      62                    
      63                    $C$DW$9 .dwtag  DW_TAG_subprogram
      64                            .dwattr $C$DW$9, DW_AT_name("sprintf")
      65                            .dwattr $C$DW$9, DW_AT_TI_symbol_name("sprintf")
      66                            .dwattr $C$DW$9, DW_AT_type(*$C$DW$T$10)
      67                            .dwattr $C$DW$9, DW_AT_declaration
      68                            .dwattr $C$DW$9, DW_AT_external
      69                            .dwattr $C$DW$9, DW_AT_decl_file("C:/TI_CodeComposer/ccsv6/tools/compiler/ti-cgt-arm_15.12.1.L
      70                            .dwattr $C$DW$9, DW_AT_decl_line(0xf9)
      71                            .dwattr $C$DW$9, DW_AT_decl_column(0x19)
      72                    $C$DW$10        .dwtag  DW_TAG_formal_parameter
      73                            .dwattr $C$DW$10, DW_AT_type(*$C$DW$T$81)
      74                    
      75                    $C$DW$11        .dwtag  DW_TAG_formal_parameter
      76                            .dwattr $C$DW$11, DW_AT_type(*$C$DW$T$42)
      77                    
      78                    $C$DW$12        .dwtag  DW_TAG_unspecified_parameters
      79                    
      80                            .dwendtag $C$DW$9
      81                    
      82                    
      83                    $C$DW$13        .dwtag  DW_TAG_subprogram
      84                            .dwattr $C$DW$13, DW_AT_name("Initialize_OLED")
      85                            .dwattr $C$DW$13, DW_AT_TI_symbol_name("Initialize_OLED")
      86                            .dwattr $C$DW$13, DW_AT_declaration
      87                            .dwattr $C$DW$13, DW_AT_external
      88                            .dwattr $C$DW$13, DW_AT_decl_file("../Tasks/Task_ReportSysTick.c")
      89                            .dwattr $C$DW$13, DW_AT_decl_line(0x23)
      90                            .dwattr $C$DW$13, DW_AT_decl_column(0x0d)
      91                            .dwendtag $C$DW$13
      92                    
      93 00000000                   .data
      94                            .align  4
      95                            .elfsym outsideInput,SYM_SIZE(4)
      96 00000000           outsideInput:
      97 00000000 00000000          .bits   0,32                    ; outsideInput @ 0
      98                    
      99                    $C$DW$14        .dwtag  DW_TAG_variable
     100                            .dwattr $C$DW$14, DW_AT_name("outsideInput")
     101                            .dwattr $C$DW$14, DW_AT_TI_symbol_name("outsideInput")
     102                            .dwattr $C$DW$14, DW_AT_type(*$C$DW$T$10)
     103                            .dwattr $C$DW$14, DW_AT_location[DW_OP_addr outsideInput]
     104                            .dwattr $C$DW$14, DW_AT_decl_file("../Tasks/Task_ReportSysTick.c")
     105                            .dwattr $C$DW$14, DW_AT_decl_line(0x2a)
     106                            .dwattr $C$DW$14, DW_AT_decl_column(0x0c)
     107                    
     108                    ;       C:\TI_CodeComposer\ccsv6\tools\compiler\ti-cgt-arm_15.12.1.LTS\bin\armacpia.exe -@C:\\Users\\S
     109 00000000                   .sect   ".text"
     110                            .clink
TI ARM Assembler PC v15.12.1 Wed Mar 01 14:56:09 2017

Tools Copyright (c) 1996-2015 Texas Instruments Incorporated
Task_ReportSysTick.asm                                               PAGE    3

     111                            .thumbfunc Task_ReportSysTick
     112 00000000                   .thumb
     113                            .global Task_ReportSysTick
     114                    
     115                    $C$DW$15        .dwtag  DW_TAG_subprogram
     116                            .dwattr $C$DW$15, DW_AT_name("Task_ReportSysTick")
     117                            .dwattr $C$DW$15, DW_AT_low_pc(Task_ReportSysTick)
     118                            .dwattr $C$DW$15, DW_AT_high_pc(0x00)
     119                            .dwattr $C$DW$15, DW_AT_TI_symbol_name("Task_ReportSysTick")
     120                            .dwattr $C$DW$15, DW_AT_external
     121                            .dwattr $C$DW$15, DW_AT_TI_begin_file("../Tasks/Task_ReportSysTick.c")
     122                            .dwattr $C$DW$15, DW_AT_TI_begin_line(0x2b)
     123                            .dwattr $C$DW$15, DW_AT_TI_begin_column(0x0d)
     124                            .dwattr $C$DW$15, DW_AT_decl_file("../Tasks/Task_ReportSysTick.c")
     125                            .dwattr $C$DW$15, DW_AT_decl_line(0x2b)
     126                            .dwattr $C$DW$15, DW_AT_decl_column(0x0d)
     127                            .dwattr $C$DW$15, DW_AT_TI_max_frame_size(0x48)
     128                            .dwpsn  file "../Tasks/Task_ReportSysTick.c",line 43,column 54,is_stmt,address Task_ReportSysT
     129                    
     130                            .dwfde $C$DW$CIE, Task_ReportSysTick
     131                    $C$DW$16        .dwtag  DW_TAG_formal_parameter
     132                            .dwattr $C$DW$16, DW_AT_name("pvParameters")
     133                            .dwattr $C$DW$16, DW_AT_TI_symbol_name("pvParameters")
     134                            .dwattr $C$DW$16, DW_AT_type(*$C$DW$T$3)
     135                            .dwattr $C$DW$16, DW_AT_location[DW_OP_reg0]
     136                    
     137                    
     138                    ;*****************************************************************************
     139                    ;* FUNCTION NAME: Task_ReportSysTick                                         *
     140                    ;*                                                                           *
     141                    ;*   Regs Modified     : A1,A2,A3,A4,V9,SP,LR,SR                             *
     142                    ;*   Regs Used         : A1,A2,A3,A4,V9,SP,LR,SR                             *
     143                    ;*   Local Frame Size  : 0 Args + 64 Auto + 4 Save = 68 byte                 *
     144                    ;*****************************************************************************
     145 00000000           Task_ReportSysTick:
     146                    ;* --------------------------------------------------------------------------*
     147                            .dwcfi  cfa_offset, 0
     148 00000000 B500              PUSH      {LR}                  ; [DPU_3_PIPE]  ; [ORIG 16-BIT INS]
     149                            .dwcfi  cfa_offset, 4
     150                            .dwcfi  save_reg_to_mem, 14, -4
     151 00000002 0D44F1AD          SUB       SP, SP, #68           ; [DPU_3_PIPE]  ; [KEEP 32-BIT INS]
     152                            .dwcfi  cfa_offset, 72
     153                    $C$DW$17        .dwtag  DW_TAG_variable
     154                            .dwattr $C$DW$17, DW_AT_name("pvParameters")
     155                            .dwattr $C$DW$17, DW_AT_TI_symbol_name("pvParameters")
     156                            .dwattr $C$DW$17, DW_AT_type(*$C$DW$T$3)
     157                            .dwattr $C$DW$17, DW_AT_location[DW_OP_breg13 0]
     158                    
     159                    $C$DW$18        .dwtag  DW_TAG_variable
     160                            .dwattr $C$DW$18, DW_AT_name("Task1_Status")
     161                            .dwattr $C$DW$18, DW_AT_TI_symbol_name("Task1_Status")
     162                            .dwattr $C$DW$18, DW_AT_type(*$C$DW$T$10)
     163                            .dwattr $C$DW$18, DW_AT_location[DW_OP_breg13 4]
     164                    
     165                    $C$DW$19        .dwtag  DW_TAG_variable
TI ARM Assembler PC v15.12.1 Wed Mar 01 14:56:09 2017

Tools Copyright (c) 1996-2015 Texas Instruments Incorporated
Task_ReportSysTick.asm                                               PAGE    4

     166                            .dwattr $C$DW$19, DW_AT_name("copyingStatus")
     167                            .dwattr $C$DW$19, DW_AT_TI_symbol_name("copyingStatus")
     168                            .dwattr $C$DW$19, DW_AT_type(*$C$DW$T$10)
     169                            .dwattr $C$DW$19, DW_AT_location[DW_OP_breg13 8]
     170                    
     171                    $C$DW$20        .dwtag  DW_TAG_variable
     172                            .dwattr $C$DW$20, DW_AT_name("TimeString")
     173                            .dwattr $C$DW$20, DW_AT_TI_symbol_name("TimeString")
     174                            .dwattr $C$DW$20, DW_AT_type(*$C$DW$T$114)
     175                            .dwattr $C$DW$20, DW_AT_location[DW_OP_breg13 12]
     176                    
     177                    $C$DW$21        .dwtag  DW_TAG_variable
     178                            .dwattr $C$DW$21, DW_AT_name("outsideInputString")
     179                            .dwattr $C$DW$21, DW_AT_TI_symbol_name("outsideInputString")
     180                            .dwattr $C$DW$21, DW_AT_type(*$C$DW$T$115)
     181                            .dwattr $C$DW$21, DW_AT_location[DW_OP_breg13 36]
     182                    
     183 00000006 9000              STR       A1, [SP, #0]          ; [DPU_3_PIPE] |43|  ; [ORIG 16-BIT INS]
     184                            .dwpsn  file "../Tasks/Task_ReportSysTick.c",line 44,column 2,is_stmt,isa 1
     185                    $C$DW$22        .dwtag  DW_TAG_TI_branch
     186                            .dwattr $C$DW$22, DW_AT_low_pc(0x00)
     187                            .dwattr $C$DW$22, DW_AT_name("Initialize_OLED")
     188                            .dwattr $C$DW$22, DW_AT_TI_call
     189                    
     190 00000008 FFFEF7FF!         BL        Initialize_OLED       ; [DPU_3_PIPE] |44|  ; [KEEP 32-BIT INS]
     191                            ; CALL OCCURS {Initialize_OLED }  ; [] |44| 
     192                            .dwpsn  file "../Tasks/Task_ReportSysTick.c",line 57,column 8,is_stmt,isa 1
     193                    ;* --------------------------------------------------------------------------*
     194                    ;*   BEGIN LOOP ||$C$L1||
     195                    ;*
     196                    ;*   Loop source line                : 57
     197                    ;*   Loop closing brace source line  : 75
     198                    ;*   Known Minimum Trip Count        : 1
     199                    ;*   Known Maximum Trip Count        : 4294967295
     200                    ;*   Known Max Trip Count Factor     : 1
     201                    ;* --------------------------------------------------------------------------*
     202 0000000c           ||$C$L1||:    
     203                            .dwpsn  file "../Tasks/Task_ReportSysTick.c",line 68,column 4,is_stmt,isa 1
     204                    $C$DW$23        .dwtag  DW_TAG_TI_branch
     205                            .dwattr $C$DW$23, DW_AT_low_pc(0x00)
     206                            .dwattr $C$DW$23, DW_AT_name("xTaskGetTickCount")
     207                            .dwattr $C$DW$23, DW_AT_TI_call
     208                    
     209 0000000c FFFEF7FF!         BL        xTaskGetTickCount     ; [DPU_3_PIPE] |68|  ; [KEEP 32-BIT INS]
     210                            ; CALL OCCURS {xTaskGetTickCount }  ; [] |68| 
     211 00000010 4602              MOV       A3, A1                ; [DPU_3_PIPE] |68|  ; [ORIG 16-BIT INS]
     212 00000012 A113              ADR       A2, $C$SL1            ; [DPU_3_PIPE] |68|  ; [ORIG 16-BIT INS]
     213 00000014 A803              ADD       A1, SP, #12           ; [DPU_3_PIPE] |68|  ; [ORIG 16-BIT INS]
     214                    $C$DW$24        .dwtag  DW_TAG_TI_branch
     215                            .dwattr $C$DW$24, DW_AT_low_pc(0x00)
     216                            .dwattr $C$DW$24, DW_AT_name("sprintf")
     217                            .dwattr $C$DW$24, DW_AT_TI_call
     218                    
     219 00000016 FFFEF7FF!         BL        sprintf               ; [DPU_3_PIPE] |68|  ; [KEEP 32-BIT INS]
     220                            ; CALL OCCURS {sprintf }         ; [] |68| 
TI ARM Assembler PC v15.12.1 Wed Mar 01 14:56:09 2017

Tools Copyright (c) 1996-2015 Texas Instruments Incorporated
Task_ReportSysTick.asm                                               PAGE    5

     221 0000001a 9001              STR       A1, [SP, #4]          ; [DPU_3_PIPE] |68|  ; [ORIG 16-BIT INS]
     222                            .dwpsn  file "../Tasks/Task_ReportSysTick.c",line 69,column 4,is_stmt,isa 1
     223 0000001c 9801              LDR       A1, [SP, #4]          ; [DPU_3_PIPE] |69|  ; [ORIG 16-BIT INS]
     224 0000001e 9001              STR       A1, [SP, #4]          ; [DPU_3_PIPE] |69|  ; [ORIG 16-BIT INS]
     225                            .dwpsn  file "../Tasks/Task_ReportSysTick.c",line 70,column 4,is_stmt,isa 1
     226 00000020 2100              MOVS      A2, #0                ; [DPU_3_PIPE] |70|  ; [ORIG 16-BIT INS]
     227 00000022 220C              MOVS      A3, #12               ; [DPU_3_PIPE] |70|  ; [ORIG 16-BIT INS]
     228 00000024 230F              MOVS      A4, #15               ; [DPU_3_PIPE] |70|  ; [ORIG 16-BIT INS]
     229 00000026 A803              ADD       A1, SP, #12           ; [DPU_3_PIPE] |70|  ; [ORIG 16-BIT INS]
     230                    $C$DW$25        .dwtag  DW_TAG_TI_branch
     231                            .dwattr $C$DW$25, DW_AT_low_pc(0x00)
     232                            .dwattr $C$DW$25, DW_AT_name("RIT128x96x4StringDraw")
     233                            .dwattr $C$DW$25, DW_AT_TI_call
     234                    
     235 00000028 FFFEF7FF!         BL        RIT128x96x4StringDraw ; [DPU_3_PIPE] |70|  ; [KEEP 32-BIT INS]
     236                            ; CALL OCCURS {RIT128x96x4StringDraw }  ; [] |70| 
     237                            .dwpsn  file "../Tasks/Task_ReportSysTick.c",line 71,column 4,is_stmt,isa 1
     238 0000002c 4812              LDR       A1, $C$CON1           ; [DPU_3_PIPE] |71|  ; [ORIG 16-BIT INS]
     239 0000002e 6802              LDR       A3, [A1, #0]          ; [DPU_3_PIPE] |71|  ; [ORIG 16-BIT INS]
     240 00000030 A10E              ADR       A2, $C$SL2            ; [DPU_3_PIPE] |71|  ; [ORIG 16-BIT INS]
     241 00000032 A809              ADD       A1, SP, #36           ; [DPU_3_PIPE] |71|  ; [ORIG 16-BIT INS]
     242                    $C$DW$26        .dwtag  DW_TAG_TI_branch
     243                            .dwattr $C$DW$26, DW_AT_low_pc(0x00)
     244                            .dwattr $C$DW$26, DW_AT_name("sprintf")
     245                            .dwattr $C$DW$26, DW_AT_TI_call
     246                    
     247 00000034 FFFEF7FF!         BL        sprintf               ; [DPU_3_PIPE] |71|  ; [KEEP 32-BIT INS]
     248                            ; CALL OCCURS {sprintf }         ; [] |71| 
     249 00000038 9002              STR       A1, [SP, #8]          ; [DPU_3_PIPE] |71|  ; [ORIG 16-BIT INS]
     250                            .dwpsn  file "../Tasks/Task_ReportSysTick.c",line 72,column 4,is_stmt,isa 1
     251 0000003a 2100              MOVS      A2, #0                ; [DPU_3_PIPE] |72|  ; [ORIG 16-BIT INS]
     252 0000003c 2219              MOVS      A3, #25               ; [DPU_3_PIPE] |72|  ; [ORIG 16-BIT INS]
     253 0000003e 230F              MOVS      A4, #15               ; [DPU_3_PIPE] |72|  ; [ORIG 16-BIT INS]
     254 00000040 A809              ADD       A1, SP, #36           ; [DPU_3_PIPE] |72|  ; [ORIG 16-BIT INS]
     255                    $C$DW$27        .dwtag  DW_TAG_TI_branch
     256                            .dwattr $C$DW$27, DW_AT_low_pc(0x00)
     257                            .dwattr $C$DW$27, DW_AT_name("RIT128x96x4StringDraw")
     258                            .dwattr $C$DW$27, DW_AT_TI_call
     259                    
     260 00000042 FFFEF7FF!         BL        RIT128x96x4StringDraw ; [DPU_3_PIPE] |72|  ; [KEEP 32-BIT INS]
     261                            ; CALL OCCURS {RIT128x96x4StringDraw }  ; [] |72| 
     262                            .dwpsn  file "../Tasks/Task_ReportSysTick.c",line 73,column 4,is_stmt,isa 1
     263 00000046 7010F242          MOV       A1, #10000            ; [DPU_3_PIPE] |73|  ; [KEEP 32-BIT INS]
     264                    $C$DW$28        .dwtag  DW_TAG_TI_branch
     265                            .dwattr $C$DW$28, DW_AT_low_pc(0x00)
     266                            .dwattr $C$DW$28, DW_AT_name("vTaskDelay")
     267                            .dwattr $C$DW$28, DW_AT_TI_call
     268                    
     269 0000004a FFFEF7FF!         BL        vTaskDelay            ; [DPU_3_PIPE] |73|  ; [KEEP 32-BIT INS]
     270                            ; CALL OCCURS {vTaskDelay }      ; [] |73| 
     271                            .dwpsn  file "../Tasks/Task_ReportSysTick.c",line 57,column 8,is_stmt,isa 1
     272 0000004e E7DD              B         ||$C$L1||             ; [DPU_3_PIPE] |57|  ; [ORIG 16-BIT INS]
     273                            ; BRANCH OCCURS {||$C$L1||}      ; [] |57| 
     274                    ;* --------------------------------------------------------------------------*
     275                            .dwattr $C$DW$15, DW_AT_TI_end_file("../Tasks/Task_ReportSysTick.c")
TI ARM Assembler PC v15.12.1 Wed Mar 01 14:56:09 2017

Tools Copyright (c) 1996-2015 Texas Instruments Incorporated
Task_ReportSysTick.asm                                               PAGE    6

     276                            .dwattr $C$DW$15, DW_AT_TI_end_line(0x4c)
     277                            .dwattr $C$DW$15, DW_AT_TI_end_column(0x01)
     278                            .dwendentry
     279                            .dwendtag $C$DW$15
     280                    
     281 00000050                   .sect   ".text"
     282                            .clink
     283                            .thumbfunc ReportSysTickExtraVals
     284 00000050                   .thumb
     285                            .global ReportSysTickExtraVals
     286                    
     287                    $C$DW$29        .dwtag  DW_TAG_subprogram
     288                            .dwattr $C$DW$29, DW_AT_name("ReportSysTickExtraVals")
     289                            .dwattr $C$DW$29, DW_AT_low_pc(ReportSysTickExtraVals)
     290                            .dwattr $C$DW$29, DW_AT_high_pc(0x00)
     291                            .dwattr $C$DW$29, DW_AT_TI_symbol_name("ReportSysTickExtraVals")
     292                            .dwattr $C$DW$29, DW_AT_external
     293                            .dwattr $C$DW$29, DW_AT_TI_begin_file("../Tasks/Task_ReportSysTick.c")
     294                            .dwattr $C$DW$29, DW_AT_TI_begin_line(0x4d)
     295                            .dwattr $C$DW$29, DW_AT_TI_begin_column(0x0d)
     296                            .dwattr $C$DW$29, DW_AT_decl_file("../Tasks/Task_ReportSysTick.c")
     297                            .dwattr $C$DW$29, DW_AT_decl_line(0x4d)
     298                            .dwattr $C$DW$29, DW_AT_decl_column(0x0d)
     299                            .dwattr $C$DW$29, DW_AT_TI_max_frame_size(0x08)
     300                            .dwpsn  file "../Tasks/Task_ReportSysTick.c",line 78,column 1,is_stmt,address ReportSysTickExt
     301                    
     302                            .dwfde $C$DW$CIE, ReportSysTickExtraVals
     303                    $C$DW$30        .dwtag  DW_TAG_formal_parameter
     304                            .dwattr $C$DW$30, DW_AT_name("input")
     305                            .dwattr $C$DW$30, DW_AT_TI_symbol_name("input")
     306                            .dwattr $C$DW$30, DW_AT_type(*$C$DW$T$13)
     307                            .dwattr $C$DW$30, DW_AT_location[DW_OP_reg0]
     308                    
     309                    
     310                    ;*****************************************************************************
     311                    ;* FUNCTION NAME: ReportSysTickExtraVals                                     *
     312                    ;*                                                                           *
     313                    ;*   Regs Modified     : A1,A2,SP                                            *
     314                    ;*   Regs Used         : A1,A2,SP,LR                                         *
     315                    ;*   Local Frame Size  : 0 Args + 4 Auto + 0 Save = 4 byte                   *
     316                    ;*****************************************************************************
     317 00000050           ReportSysTickExtraVals:
     318                    ;* --------------------------------------------------------------------------*
     319                            .dwcfi  cfa_offset, 0
     320 00000050 0D08F1AD          SUB       SP, SP, #8            ; [DPU_3_PIPE]  ; [KEEP 32-BIT INS]
     321                            .dwcfi  cfa_offset, 8
     322                    $C$DW$31        .dwtag  DW_TAG_variable
     323                            .dwattr $C$DW$31, DW_AT_name("input")
     324                            .dwattr $C$DW$31, DW_AT_TI_symbol_name("input")
     325                            .dwattr $C$DW$31, DW_AT_type(*$C$DW$T$13)
     326                            .dwattr $C$DW$31, DW_AT_location[DW_OP_breg13 0]
     327                    
     328 00000054 9000              STR       A1, [SP, #0]          ; [DPU_3_PIPE] |78|  ; [ORIG 16-BIT INS]
     329                            .dwpsn  file "../Tasks/Task_ReportSysTick.c",line 79,column 2,is_stmt,isa 1
     330 00000056 4908              LDR       A2, $C$CON1           ; [DPU_3_PIPE] |79|  ; [ORIG 16-BIT INS]
TI ARM Assembler PC v15.12.1 Wed Mar 01 14:56:09 2017

Tools Copyright (c) 1996-2015 Texas Instruments Incorporated
Task_ReportSysTick.asm                                               PAGE    7

     331 00000058 9800              LDR       A1, [SP, #0]          ; [DPU_3_PIPE] |79|  ; [ORIG 16-BIT INS]
     332 0000005a 6008              STR       A1, [A2, #0]          ; [DPU_3_PIPE] |79|  ; [ORIG 16-BIT INS]
     333                            .dwpsn  file "../Tasks/Task_ReportSysTick.c",line 80,column 1,is_stmt,isa 1
     334 0000005c B002              ADD       SP, SP, #8            ; [DPU_3_PIPE]  ; [ORIG 16-BIT INS]
     335                            .dwcfi  cfa_offset, 0
     336                    $C$DW$32        .dwtag  DW_TAG_TI_branch
     337                            .dwattr $C$DW$32, DW_AT_low_pc(0x00)
     338                            .dwattr $C$DW$32, DW_AT_TI_return
     339                    
     340 0000005e 4770              BX        LR                    ; [DPU_3_PIPE]  ; [ORIG 16-BIT INS]
     341                            ; BRANCH OCCURS                  ; [] 
     342                            .dwattr $C$DW$29, DW_AT_TI_end_file("../Tasks/Task_ReportSysTick.c")
     343                            .dwattr $C$DW$29, DW_AT_TI_end_line(0x50)
     344                            .dwattr $C$DW$29, DW_AT_TI_end_column(0x01)
     345                            .dwendentry
     346                            .dwendtag $C$DW$29
     347                    
     348                    ;******************************************************************************
     349                    ;* STRINGS                                                                    *
     350                    ;******************************************************************************
     351 00000060                   .sect   ".text"
     352                            .align  4
     353 00000060 54        ||$C$SL1||:     .string "Time: %d",0
         00000061 69       
         00000062 6D       
         00000063 65       
         00000064 3A       
         00000065 20       
         00000066 25       
         00000067 64       
         00000068 00       
     354                            .align  4
     355 0000006c 41        ||$C$SL2||:     .string "ADC: %04d",0
         0000006d 44       
         0000006e 43       
         0000006f 3A       
         00000070 20       
         00000071 25       
         00000072 30       
         00000073 34       
         00000074 64       
         00000075 00       
     356                    ;******************************************************************************
     357                    ;* CONSTANT TABLE                                                             *
     358                    ;******************************************************************************
     359 00000076                   .sect   ".text"
     360                            .align  4
     361 00000078 00000000! ||$C$CON1||:    .bits   outsideInput,32
     362                    ;*****************************************************************************
     363                    ;* UNDEFINED EXTERNAL REFERENCES                                             *
     364                    ;*****************************************************************************
     365                            .global RIT128x96x4StringDraw
     366                            .global vTaskDelay
     367                            .global xTaskGetTickCount
     368                            .global sprintf
TI ARM Assembler PC v15.12.1 Wed Mar 01 14:56:09 2017

Tools Copyright (c) 1996-2015 Texas Instruments Incorporated
Task_ReportSysTick.asm                                               PAGE    8

     369                            .global Initialize_OLED
     370                    
     371                    ;******************************************************************************
     372                    ;* BUILD ATTRIBUTES                                                           *
     373                    ;******************************************************************************
     374                            .battr "aeabi", Tag_File, 1, Tag_ABI_PCS_wchar_t(2)
     375                            .battr "aeabi", Tag_File, 1, Tag_ABI_FP_rounding(0)
     376                            .battr "aeabi", Tag_File, 1, Tag_ABI_FP_denormal(0)
     377                            .battr "aeabi", Tag_File, 1, Tag_ABI_FP_exceptions(0)
     378                            .battr "aeabi", Tag_File, 1, Tag_ABI_FP_number_model(1)
     379                            .battr "aeabi", Tag_File, 1, Tag_ABI_enum_size(1)
     380                            .battr "aeabi", Tag_File, 1, Tag_ABI_optimization_goals(5)
     381                            .battr "aeabi", Tag_File, 1, Tag_ABI_FP_optimization_goals(0)
     382                            .battr "TI", Tag_File, 1, Tag_Bitfield_layout(2)
     383                            .battr "TI", Tag_File, 1, Tag_FP_interface(1)
     384                    
     385                    ;******************************************************************************
     386                    ;* TYPE INFORMATION                                                           *
     387                    ;******************************************************************************
     388                    
     389                    $C$DW$T$51      .dwtag  DW_TAG_enumeration_type
     390                            .dwattr $C$DW$T$51, DW_AT_byte_size(0x01)
     391                    $C$DW$33        .dwtag  DW_TAG_enumerator
     392                            .dwattr $C$DW$33, DW_AT_name("eRunning")
     393                            .dwattr $C$DW$33, DW_AT_const_value(0x00)
     394                            .dwattr $C$DW$33, DW_AT_decl_file("H:/EECS_388/TI_ARM_Projects/ADC_Pot/Source/include/task.h")
     395                            .dwattr $C$DW$33, DW_AT_decl_line(0x72)
     396                            .dwattr $C$DW$33, DW_AT_decl_column(0x02)
     397                    
     398                    $C$DW$34        .dwtag  DW_TAG_enumerator
     399                            .dwattr $C$DW$34, DW_AT_name("eReady")
     400                            .dwattr $C$DW$34, DW_AT_const_value(0x01)
     401                            .dwattr $C$DW$34, DW_AT_decl_file("H:/EECS_388/TI_ARM_Projects/ADC_Pot/Source/include/task.h")
     402                            .dwattr $C$DW$34, DW_AT_decl_line(0x73)
     403                            .dwattr $C$DW$34, DW_AT_decl_column(0x02)
     404                    
     405                    $C$DW$35        .dwtag  DW_TAG_enumerator
     406                            .dwattr $C$DW$35, DW_AT_name("eBlocked")
     407                            .dwattr $C$DW$35, DW_AT_const_value(0x02)
     408                            .dwattr $C$DW$35, DW_AT_decl_file("H:/EECS_388/TI_ARM_Projects/ADC_Pot/Source/include/task.h")
     409                            .dwattr $C$DW$35, DW_AT_decl_line(0x74)
     410                            .dwattr $C$DW$35, DW_AT_decl_column(0x02)
     411                    
     412                    $C$DW$36        .dwtag  DW_TAG_enumerator
     413                            .dwattr $C$DW$36, DW_AT_name("eSuspended")
     414                            .dwattr $C$DW$36, DW_AT_const_value(0x03)
     415                            .dwattr $C$DW$36, DW_AT_decl_file("H:/EECS_388/TI_ARM_Projects/ADC_Pot/Source/include/task.h")
     416                            .dwattr $C$DW$36, DW_AT_decl_line(0x75)
     417                            .dwattr $C$DW$36, DW_AT_decl_column(0x02)
     418                    
     419                    $C$DW$37        .dwtag  DW_TAG_enumerator
     420                            .dwattr $C$DW$37, DW_AT_name("eDeleted")
     421                            .dwattr $C$DW$37, DW_AT_const_value(0x04)
     422                            .dwattr $C$DW$37, DW_AT_decl_file("H:/EECS_388/TI_ARM_Projects/ADC_Pot/Source/include/task.h")
     423                            .dwattr $C$DW$37, DW_AT_decl_line(0x76)
TI ARM Assembler PC v15.12.1 Wed Mar 01 14:56:09 2017

Tools Copyright (c) 1996-2015 Texas Instruments Incorporated
Task_ReportSysTick.asm                                               PAGE    9

     424                            .dwattr $C$DW$37, DW_AT_decl_column(0x02)
     425                    
     426                            .dwattr $C$DW$T$51, DW_AT_decl_file("H:/EECS_388/TI_ARM_Projects/ADC_Pot/Source/include/task.h
     427                            .dwattr $C$DW$T$51, DW_AT_decl_line(0x71)
     428                            .dwattr $C$DW$T$51, DW_AT_decl_column(0x01)
     429                            .dwendtag $C$DW$T$51
     430                    
     431                    $C$DW$T$52      .dwtag  DW_TAG_typedef
     432                            .dwattr $C$DW$T$52, DW_AT_name("eTaskState")
     433                            .dwattr $C$DW$T$52, DW_AT_type(*$C$DW$T$51)
     434                            .dwattr $C$DW$T$52, DW_AT_language(DW_LANG_C)
     435                            .dwattr $C$DW$T$52, DW_AT_decl_file("H:/EECS_388/TI_ARM_Projects/ADC_Pot/Source/include/task.h
     436                            .dwattr $C$DW$T$52, DW_AT_decl_line(0x77)
     437                            .dwattr $C$DW$T$52, DW_AT_decl_column(0x03)
     438                    
     439                    
     440                    $C$DW$T$57      .dwtag  DW_TAG_enumeration_type
     441                            .dwattr $C$DW$T$57, DW_AT_byte_size(0x01)
     442                    $C$DW$38        .dwtag  DW_TAG_enumerator
     443                            .dwattr $C$DW$38, DW_AT_name("eNoAction")
     444                            .dwattr $C$DW$38, DW_AT_const_value(0x00)
     445                            .dwattr $C$DW$38, DW_AT_decl_file("H:/EECS_388/TI_ARM_Projects/ADC_Pot/Source/include/task.h")
     446                            .dwattr $C$DW$38, DW_AT_decl_line(0x7c)
     447                            .dwattr $C$DW$38, DW_AT_decl_column(0x02)
     448                    
     449                    $C$DW$39        .dwtag  DW_TAG_enumerator
     450                            .dwattr $C$DW$39, DW_AT_name("eSetBits")
     451                            .dwattr $C$DW$39, DW_AT_const_value(0x01)
     452                            .dwattr $C$DW$39, DW_AT_decl_file("H:/EECS_388/TI_ARM_Projects/ADC_Pot/Source/include/task.h")
     453                            .dwattr $C$DW$39, DW_AT_decl_line(0x7d)
     454                            .dwattr $C$DW$39, DW_AT_decl_column(0x02)
     455                    
     456                    $C$DW$40        .dwtag  DW_TAG_enumerator
     457                            .dwattr $C$DW$40, DW_AT_name("eIncrement")
     458                            .dwattr $C$DW$40, DW_AT_const_value(0x02)
     459                            .dwattr $C$DW$40, DW_AT_decl_file("H:/EECS_388/TI_ARM_Projects/ADC_Pot/Source/include/task.h")
     460                            .dwattr $C$DW$40, DW_AT_decl_line(0x7e)
     461                            .dwattr $C$DW$40, DW_AT_decl_column(0x02)
     462                    
     463                    $C$DW$41        .dwtag  DW_TAG_enumerator
     464                            .dwattr $C$DW$41, DW_AT_name("eSetValueWithOverwrite")
     465                            .dwattr $C$DW$41, DW_AT_const_value(0x03)
     466                            .dwattr $C$DW$41, DW_AT_decl_file("H:/EECS_388/TI_ARM_Projects/ADC_Pot/Source/include/task.h")
     467                            .dwattr $C$DW$41, DW_AT_decl_line(0x7f)
     468                            .dwattr $C$DW$41, DW_AT_decl_column(0x02)
     469                    
     470                    $C$DW$42        .dwtag  DW_TAG_enumerator
     471                            .dwattr $C$DW$42, DW_AT_name("eSetValueWithoutOverwrite")
     472                            .dwattr $C$DW$42, DW_AT_const_value(0x04)
     473                            .dwattr $C$DW$42, DW_AT_decl_file("H:/EECS_388/TI_ARM_Projects/ADC_Pot/Source/include/task.h")
     474                            .dwattr $C$DW$42, DW_AT_decl_line(0x80)
     475                            .dwattr $C$DW$42, DW_AT_decl_column(0x02)
     476                    
     477                            .dwattr $C$DW$T$57, DW_AT_decl_file("H:/EECS_388/TI_ARM_Projects/ADC_Pot/Source/include/task.h
     478                            .dwattr $C$DW$T$57, DW_AT_decl_line(0x7b)
TI ARM Assembler PC v15.12.1 Wed Mar 01 14:56:09 2017

Tools Copyright (c) 1996-2015 Texas Instruments Incorporated
Task_ReportSysTick.asm                                               PAGE   10

     479                            .dwattr $C$DW$T$57, DW_AT_decl_column(0x01)
     480                            .dwendtag $C$DW$T$57
     481                    
     482                    $C$DW$T$58      .dwtag  DW_TAG_typedef
     483                            .dwattr $C$DW$T$58, DW_AT_name("eNotifyAction")
     484                            .dwattr $C$DW$T$58, DW_AT_type(*$C$DW$T$57)
     485                            .dwattr $C$DW$T$58, DW_AT_language(DW_LANG_C)
     486                            .dwattr $C$DW$T$58, DW_AT_decl_file("H:/EECS_388/TI_ARM_Projects/ADC_Pot/Source/include/task.h
     487                            .dwattr $C$DW$T$58, DW_AT_decl_line(0x81)
     488                            .dwattr $C$DW$T$58, DW_AT_decl_column(0x03)
     489                    
     490                    
     491                    $C$DW$T$59      .dwtag  DW_TAG_enumeration_type
     492                            .dwattr $C$DW$T$59, DW_AT_byte_size(0x01)
     493                    $C$DW$43        .dwtag  DW_TAG_enumerator
     494                            .dwattr $C$DW$43, DW_AT_name("eAbortSleep")
     495                            .dwattr $C$DW$43, DW_AT_const_value(0x00)
     496                            .dwattr $C$DW$43, DW_AT_decl_file("H:/EECS_388/TI_ARM_Projects/ADC_Pot/Source/include/task.h")
     497                            .dwattr $C$DW$43, DW_AT_decl_line(0xb5)
     498                            .dwattr $C$DW$43, DW_AT_decl_column(0x02)
     499                    
     500                    $C$DW$44        .dwtag  DW_TAG_enumerator
     501                            .dwattr $C$DW$44, DW_AT_name("eStandardSleep")
     502                            .dwattr $C$DW$44, DW_AT_const_value(0x01)
     503                            .dwattr $C$DW$44, DW_AT_decl_file("H:/EECS_388/TI_ARM_Projects/ADC_Pot/Source/include/task.h")
     504                            .dwattr $C$DW$44, DW_AT_decl_line(0xb6)
     505                            .dwattr $C$DW$44, DW_AT_decl_column(0x02)
     506                    
     507                    $C$DW$45        .dwtag  DW_TAG_enumerator
     508                            .dwattr $C$DW$45, DW_AT_name("eNoTasksWaitingTimeout")
     509                            .dwattr $C$DW$45, DW_AT_const_value(0x02)
     510                            .dwattr $C$DW$45, DW_AT_decl_file("H:/EECS_388/TI_ARM_Projects/ADC_Pot/Source/include/task.h")
     511                            .dwattr $C$DW$45, DW_AT_decl_line(0xb7)
     512                            .dwattr $C$DW$45, DW_AT_decl_column(0x02)
     513                    
     514                            .dwattr $C$DW$T$59, DW_AT_decl_file("H:/EECS_388/TI_ARM_Projects/ADC_Pot/Source/include/task.h
     515                            .dwattr $C$DW$T$59, DW_AT_decl_line(0xb4)
     516                            .dwattr $C$DW$T$59, DW_AT_decl_column(0x01)
     517                            .dwendtag $C$DW$T$59
     518                    
     519                    $C$DW$T$60      .dwtag  DW_TAG_typedef
     520                            .dwattr $C$DW$T$60, DW_AT_name("eSleepModeStatus")
     521                            .dwattr $C$DW$T$60, DW_AT_type(*$C$DW$T$59)
     522                            .dwattr $C$DW$T$60, DW_AT_language(DW_LANG_C)
     523                            .dwattr $C$DW$T$60, DW_AT_decl_file("H:/EECS_388/TI_ARM_Projects/ADC_Pot/Source/include/task.h
     524                            .dwattr $C$DW$T$60, DW_AT_decl_line(0xb8)
     525                            .dwattr $C$DW$T$60, DW_AT_decl_column(0x03)
     526                    
     527                    
     528                    $C$DW$T$20      .dwtag  DW_TAG_structure_type
     529                            .dwattr $C$DW$T$20, DW_AT_byte_size(0x18)
     530                    $C$DW$46        .dwtag  DW_TAG_member
     531                            .dwattr $C$DW$46, DW_AT_type(*$C$DW$T$10)
     532                            .dwattr $C$DW$46, DW_AT_name("fd")
     533                            .dwattr $C$DW$46, DW_AT_TI_symbol_name("fd")
TI ARM Assembler PC v15.12.1 Wed Mar 01 14:56:09 2017

Tools Copyright (c) 1996-2015 Texas Instruments Incorporated
Task_ReportSysTick.asm                                               PAGE   11

     534                            .dwattr $C$DW$46, DW_AT_data_member_location[DW_OP_plus_uconst 0x0]
     535                            .dwattr $C$DW$46, DW_AT_accessibility(DW_ACCESS_public)
     536                            .dwattr $C$DW$46, DW_AT_decl_file("C:/TI_CodeComposer/ccsv6/tools/compiler/ti-cgt-arm_15.12.1.
     537                            .dwattr $C$DW$46, DW_AT_decl_line(0x5c)
     538                            .dwattr $C$DW$46, DW_AT_decl_column(0x0b)
     539                    
     540                    $C$DW$47        .dwtag  DW_TAG_member
     541                            .dwattr $C$DW$47, DW_AT_type(*$C$DW$T$19)
     542                            .dwattr $C$DW$47, DW_AT_name("buf")
     543                            .dwattr $C$DW$47, DW_AT_TI_symbol_name("buf")
     544                            .dwattr $C$DW$47, DW_AT_data_member_location[DW_OP_plus_uconst 0x4]
     545                            .dwattr $C$DW$47, DW_AT_accessibility(DW_ACCESS_public)
     546                            .dwattr $C$DW$47, DW_AT_decl_file("C:/TI_CodeComposer/ccsv6/tools/compiler/ti-cgt-arm_15.12.1.
     547                            .dwattr $C$DW$47, DW_AT_decl_line(0x5d)
     548                            .dwattr $C$DW$47, DW_AT_decl_column(0x16)
     549                    
     550                    $C$DW$48        .dwtag  DW_TAG_member
     551                            .dwattr $C$DW$48, DW_AT_type(*$C$DW$T$19)
     552                            .dwattr $C$DW$48, DW_AT_name("pos")
     553                            .dwattr $C$DW$48, DW_AT_TI_symbol_name("pos")
     554                            .dwattr $C$DW$48, DW_AT_data_member_location[DW_OP_plus_uconst 0x8]
     555                            .dwattr $C$DW$48, DW_AT_accessibility(DW_ACCESS_public)
     556                            .dwattr $C$DW$48, DW_AT_decl_file("C:/TI_CodeComposer/ccsv6/tools/compiler/ti-cgt-arm_15.12.1.
     557                            .dwattr $C$DW$48, DW_AT_decl_line(0x5e)
     558                            .dwattr $C$DW$48, DW_AT_decl_column(0x16)
     559                    
     560                    $C$DW$49        .dwtag  DW_TAG_member
     561                            .dwattr $C$DW$49, DW_AT_type(*$C$DW$T$19)
     562                            .dwattr $C$DW$49, DW_AT_name("bufend")
     563                            .dwattr $C$DW$49, DW_AT_TI_symbol_name("bufend")
     564                            .dwattr $C$DW$49, DW_AT_data_member_location[DW_OP_plus_uconst 0xc]
     565                            .dwattr $C$DW$49, DW_AT_accessibility(DW_ACCESS_public)
     566                            .dwattr $C$DW$49, DW_AT_decl_file("C:/TI_CodeComposer/ccsv6/tools/compiler/ti-cgt-arm_15.12.1.
     567                            .dwattr $C$DW$49, DW_AT_decl_line(0x5f)
     568                            .dwattr $C$DW$49, DW_AT_decl_column(0x16)
     569                    
     570                    $C$DW$50        .dwtag  DW_TAG_member
     571                            .dwattr $C$DW$50, DW_AT_type(*$C$DW$T$19)
     572                            .dwattr $C$DW$50, DW_AT_name("buff_stop")
     573                            .dwattr $C$DW$50, DW_AT_TI_symbol_name("buff_stop")
     574                            .dwattr $C$DW$50, DW_AT_data_member_location[DW_OP_plus_uconst 0x10]
     575                            .dwattr $C$DW$50, DW_AT_accessibility(DW_ACCESS_public)
     576                            .dwattr $C$DW$50, DW_AT_decl_file("C:/TI_CodeComposer/ccsv6/tools/compiler/ti-cgt-arm_15.12.1.
     577                            .dwattr $C$DW$50, DW_AT_decl_line(0x60)
     578                            .dwattr $C$DW$50, DW_AT_decl_column(0x16)
     579                    
     580                    $C$DW$51        .dwtag  DW_TAG_member
     581                            .dwattr $C$DW$51, DW_AT_type(*$C$DW$T$11)
     582                            .dwattr $C$DW$51, DW_AT_name("flags")
     583                            .dwattr $C$DW$51, DW_AT_TI_symbol_name("flags")
     584                            .dwattr $C$DW$51, DW_AT_data_member_location[DW_OP_plus_uconst 0x14]
     585                            .dwattr $C$DW$51, DW_AT_accessibility(DW_ACCESS_public)
     586                            .dwattr $C$DW$51, DW_AT_decl_file("C:/TI_CodeComposer/ccsv6/tools/compiler/ti-cgt-arm_15.12.1.
     587                            .dwattr $C$DW$51, DW_AT_decl_line(0x61)
     588                            .dwattr $C$DW$51, DW_AT_decl_column(0x16)
TI ARM Assembler PC v15.12.1 Wed Mar 01 14:56:09 2017

Tools Copyright (c) 1996-2015 Texas Instruments Incorporated
Task_ReportSysTick.asm                                               PAGE   12

     589                    
     590                            .dwattr $C$DW$T$20, DW_AT_decl_file("C:/TI_CodeComposer/ccsv6/tools/compiler/ti-cgt-arm_15.12.
     591                            .dwattr $C$DW$T$20, DW_AT_decl_line(0x5b)
     592                            .dwattr $C$DW$T$20, DW_AT_decl_column(0x10)
     593                            .dwendtag $C$DW$T$20
     594                    
     595                    $C$DW$T$61      .dwtag  DW_TAG_typedef
     596                            .dwattr $C$DW$T$61, DW_AT_name("FILE")
     597                            .dwattr $C$DW$T$61, DW_AT_type(*$C$DW$T$20)
     598                            .dwattr $C$DW$T$61, DW_AT_language(DW_LANG_C)
     599                            .dwattr $C$DW$T$61, DW_AT_decl_file("C:/TI_CodeComposer/ccsv6/tools/compiler/ti-cgt-arm_15.12.
     600                            .dwattr $C$DW$T$61, DW_AT_decl_line(0x62)
     601                            .dwattr $C$DW$T$61, DW_AT_decl_column(0x03)
     602                    
     603                    
     604                    $C$DW$T$24      .dwtag  DW_TAG_structure_type
     605                            .dwattr $C$DW$T$24, DW_AT_name("HeapRegion")
     606                            .dwattr $C$DW$T$24, DW_AT_byte_size(0x08)
     607                    $C$DW$52        .dwtag  DW_TAG_member
     608                            .dwattr $C$DW$52, DW_AT_type(*$C$DW$T$22)
     609                            .dwattr $C$DW$52, DW_AT_name("pucStartAddress")
     610                            .dwattr $C$DW$52, DW_AT_TI_symbol_name("pucStartAddress")
     611                            .dwattr $C$DW$52, DW_AT_data_member_location[DW_OP_plus_uconst 0x0]
     612                            .dwattr $C$DW$52, DW_AT_accessibility(DW_ACCESS_public)
     613                            .dwattr $C$DW$52, DW_AT_decl_file("H:\EECS_388\TI_ARM_Projects\ADC_Pot\Source\include\portable
     614                            .dwattr $C$DW$52, DW_AT_decl_line(0x96)
     615                            .dwattr $C$DW$52, DW_AT_decl_column(0x0b)
     616                    
     617                    $C$DW$53        .dwtag  DW_TAG_member
     618                            .dwattr $C$DW$53, DW_AT_type(*$C$DW$T$23)
     619                            .dwattr $C$DW$53, DW_AT_name("xSizeInBytes")
     620                            .dwattr $C$DW$53, DW_AT_TI_symbol_name("xSizeInBytes")
     621                            .dwattr $C$DW$53, DW_AT_data_member_location[DW_OP_plus_uconst 0x4]
     622                            .dwattr $C$DW$53, DW_AT_accessibility(DW_ACCESS_public)
     623                            .dwattr $C$DW$53, DW_AT_decl_file("H:\EECS_388\TI_ARM_Projects\ADC_Pot\Source\include\portable
     624                            .dwattr $C$DW$53, DW_AT_decl_line(0x97)
     625                            .dwattr $C$DW$53, DW_AT_decl_column(0x09)
     626                    
     627                            .dwattr $C$DW$T$24, DW_AT_decl_file("H:\EECS_388\TI_ARM_Projects\ADC_Pot\Source\include\portab
     628                            .dwattr $C$DW$T$24, DW_AT_decl_line(0x94)
     629                            .dwattr $C$DW$T$24, DW_AT_decl_column(0x10)
     630                            .dwendtag $C$DW$T$24
     631                    
     632                    $C$DW$T$62      .dwtag  DW_TAG_typedef
     633                            .dwattr $C$DW$T$62, DW_AT_name("HeapRegion_t")
     634                            .dwattr $C$DW$T$62, DW_AT_type(*$C$DW$T$24)
     635                            .dwattr $C$DW$T$62, DW_AT_language(DW_LANG_C)
     636                            .dwattr $C$DW$T$62, DW_AT_decl_file("H:\EECS_388\TI_ARM_Projects\ADC_Pot\Source\include\portab
     637                            .dwattr $C$DW$T$62, DW_AT_decl_line(0x98)
     638                            .dwattr $C$DW$T$62, DW_AT_decl_column(0x03)
     639                    
     640                    $C$DW$T$2       .dwtag  DW_TAG_unspecified_type
     641                            .dwattr $C$DW$T$2, DW_AT_name("void")
     642                    
     643                    $C$DW$T$3       .dwtag  DW_TAG_pointer_type
TI ARM Assembler PC v15.12.1 Wed Mar 01 14:56:09 2017

Tools Copyright (c) 1996-2015 Texas Instruments Incorporated
Task_ReportSysTick.asm                                               PAGE   13

     644                            .dwattr $C$DW$T$3, DW_AT_type(*$C$DW$T$2)
     645                            .dwattr $C$DW$T$3, DW_AT_address_class(0x20)
     646                    
     647                    $C$DW$T$50      .dwtag  DW_TAG_typedef
     648                            .dwattr $C$DW$T$50, DW_AT_name("TaskHandle_t")
     649                            .dwattr $C$DW$T$50, DW_AT_type(*$C$DW$T$3)
     650                            .dwattr $C$DW$T$50, DW_AT_language(DW_LANG_C)
     651                            .dwattr $C$DW$T$50, DW_AT_decl_file("H:/EECS_388/TI_ARM_Projects/ADC_Pot/Source/include/task.h
     652                            .dwattr $C$DW$T$50, DW_AT_decl_line(0x67)
     653                            .dwattr $C$DW$T$50, DW_AT_decl_column(0x10)
     654                    
     655                    
     656                    $C$DW$T$37      .dwtag  DW_TAG_subroutine_type
     657                            .dwattr $C$DW$T$37, DW_AT_language(DW_LANG_C)
     658                    $C$DW$54        .dwtag  DW_TAG_formal_parameter
     659                            .dwattr $C$DW$54, DW_AT_type(*$C$DW$T$3)
     660                    
     661                            .dwendtag $C$DW$T$37
     662                    
     663                    $C$DW$T$38      .dwtag  DW_TAG_pointer_type
     664                            .dwattr $C$DW$T$38, DW_AT_type(*$C$DW$T$37)
     665                            .dwattr $C$DW$T$38, DW_AT_address_class(0x20)
     666                    
     667                    $C$DW$T$39      .dwtag  DW_TAG_typedef
     668                            .dwattr $C$DW$T$39, DW_AT_name("TaskFunction_t")
     669                            .dwattr $C$DW$T$39, DW_AT_type(*$C$DW$T$38)
     670                            .dwattr $C$DW$T$39, DW_AT_language(DW_LANG_C)
     671                            .dwattr $C$DW$T$39, DW_AT_decl_file("H:\EECS_388\TI_ARM_Projects\ADC_Pot\Source\include\projde
     672                            .dwattr $C$DW$T$39, DW_AT_decl_line(0x4d)
     673                            .dwattr $C$DW$T$39, DW_AT_decl_column(0x10)
     674                    
     675                    $C$DW$T$4       .dwtag  DW_TAG_base_type
     676                            .dwattr $C$DW$T$4, DW_AT_encoding(DW_ATE_boolean)
     677                            .dwattr $C$DW$T$4, DW_AT_name("bool")
     678                            .dwattr $C$DW$T$4, DW_AT_byte_size(0x01)
     679                    
     680                    $C$DW$T$5       .dwtag  DW_TAG_base_type
     681                            .dwattr $C$DW$T$5, DW_AT_encoding(DW_ATE_signed_char)
     682                            .dwattr $C$DW$T$5, DW_AT_name("signed char")
     683                            .dwattr $C$DW$T$5, DW_AT_byte_size(0x01)
     684                    
     685                    $C$DW$T$71      .dwtag  DW_TAG_typedef
     686                            .dwattr $C$DW$T$71, DW_AT_name("int8_t")
     687                            .dwattr $C$DW$T$71, DW_AT_type(*$C$DW$T$5)
     688                            .dwattr $C$DW$T$71, DW_AT_language(DW_LANG_C)
     689                            .dwattr $C$DW$T$71, DW_AT_decl_file("C:/TI_CodeComposer/ccsv6/tools/compiler/ti-cgt-arm_15.12.
     690                            .dwattr $C$DW$T$71, DW_AT_decl_line(0x2a)
     691                            .dwattr $C$DW$T$71, DW_AT_decl_column(0x1d)
     692                    
     693                    $C$DW$T$72      .dwtag  DW_TAG_typedef
     694                            .dwattr $C$DW$T$72, DW_AT_name("int_least8_t")
     695                            .dwattr $C$DW$T$72, DW_AT_type(*$C$DW$T$71)
     696                            .dwattr $C$DW$T$72, DW_AT_language(DW_LANG_C)
     697                            .dwattr $C$DW$T$72, DW_AT_decl_file("C:/TI_CodeComposer/ccsv6/tools/compiler/ti-cgt-arm_15.12.
     698                            .dwattr $C$DW$T$72, DW_AT_decl_line(0x37)
TI ARM Assembler PC v15.12.1 Wed Mar 01 14:56:09 2017

Tools Copyright (c) 1996-2015 Texas Instruments Incorporated
Task_ReportSysTick.asm                                               PAGE   14

     699                            .dwattr $C$DW$T$72, DW_AT_decl_column(0x17)
     700                    
     701                    $C$DW$T$6       .dwtag  DW_TAG_base_type
     702                            .dwattr $C$DW$T$6, DW_AT_encoding(DW_ATE_unsigned_char)
     703                            .dwattr $C$DW$T$6, DW_AT_name("unsigned char")
     704                            .dwattr $C$DW$T$6, DW_AT_byte_size(0x01)
     705                    
     706                    $C$DW$T$19      .dwtag  DW_TAG_pointer_type
     707                            .dwattr $C$DW$T$19, DW_AT_type(*$C$DW$T$6)
     708                            .dwattr $C$DW$T$19, DW_AT_address_class(0x20)
     709                    
     710                    $C$DW$T$73      .dwtag  DW_TAG_typedef
     711                            .dwattr $C$DW$T$73, DW_AT_name("tBoolean")
     712                            .dwattr $C$DW$T$73, DW_AT_type(*$C$DW$T$6)
     713                            .dwattr $C$DW$T$73, DW_AT_language(DW_LANG_C)
     714                            .dwattr $C$DW$T$73, DW_AT_decl_file("C:/TI_CodeComposer/StellarisWare-LM3S1968/inc/hw_types.h"
     715                            .dwattr $C$DW$T$73, DW_AT_decl_line(0x30)
     716                            .dwattr $C$DW$T$73, DW_AT_decl_column(0x17)
     717                    
     718                    $C$DW$T$21      .dwtag  DW_TAG_typedef
     719                            .dwattr $C$DW$T$21, DW_AT_name("uint8_t")
     720                            .dwattr $C$DW$T$21, DW_AT_type(*$C$DW$T$6)
     721                            .dwattr $C$DW$T$21, DW_AT_language(DW_LANG_C)
     722                            .dwattr $C$DW$T$21, DW_AT_decl_file("C:/TI_CodeComposer/ccsv6/tools/compiler/ti-cgt-arm_15.12.
     723                            .dwattr $C$DW$T$21, DW_AT_decl_line(0x2b)
     724                            .dwattr $C$DW$T$21, DW_AT_decl_column(0x1c)
     725                    
     726                    $C$DW$T$22      .dwtag  DW_TAG_pointer_type
     727                            .dwattr $C$DW$T$22, DW_AT_type(*$C$DW$T$21)
     728                            .dwattr $C$DW$T$22, DW_AT_address_class(0x20)
     729                    
     730                    $C$DW$T$74      .dwtag  DW_TAG_typedef
     731                            .dwattr $C$DW$T$74, DW_AT_name("portCHAR")
     732                            .dwattr $C$DW$T$74, DW_AT_type(*$C$DW$T$21)
     733                            .dwattr $C$DW$T$74, DW_AT_language(DW_LANG_C)
     734                            .dwattr $C$DW$T$74, DW_AT_decl_file("H:/EECS_388/TI_ARM_Projects/ADC_Pot/Source/portable/CCS/A
     735                            .dwattr $C$DW$T$74, DW_AT_decl_line(0x66)
     736                            .dwattr $C$DW$T$74, DW_AT_decl_column(0x12)
     737                    
     738                    $C$DW$T$75      .dwtag  DW_TAG_typedef
     739                            .dwattr $C$DW$T$75, DW_AT_name("uint_least8_t")
     740                            .dwattr $C$DW$T$75, DW_AT_type(*$C$DW$T$21)
     741                            .dwattr $C$DW$T$75, DW_AT_language(DW_LANG_C)
     742                            .dwattr $C$DW$T$75, DW_AT_decl_file("C:/TI_CodeComposer/ccsv6/tools/compiler/ti-cgt-arm_15.12.
     743                            .dwattr $C$DW$T$75, DW_AT_decl_line(0x38)
     744                            .dwattr $C$DW$T$75, DW_AT_decl_column(0x16)
     745                    
     746                    $C$DW$T$7       .dwtag  DW_TAG_base_type
     747                            .dwattr $C$DW$T$7, DW_AT_encoding(DW_ATE_signed_char)
     748                            .dwattr $C$DW$T$7, DW_AT_name("wchar_t")
     749                            .dwattr $C$DW$T$7, DW_AT_byte_size(0x02)
     750                    
     751                    $C$DW$T$8       .dwtag  DW_TAG_base_type
     752                            .dwattr $C$DW$T$8, DW_AT_encoding(DW_ATE_signed)
     753                            .dwattr $C$DW$T$8, DW_AT_name("short")
TI ARM Assembler PC v15.12.1 Wed Mar 01 14:56:09 2017

Tools Copyright (c) 1996-2015 Texas Instruments Incorporated
Task_ReportSysTick.asm                                               PAGE   15

     754                            .dwattr $C$DW$T$8, DW_AT_byte_size(0x02)
     755                    
     756                    $C$DW$T$76      .dwtag  DW_TAG_typedef
     757                            .dwattr $C$DW$T$76, DW_AT_name("int16_t")
     758                            .dwattr $C$DW$T$76, DW_AT_type(*$C$DW$T$8)
     759                            .dwattr $C$DW$T$76, DW_AT_language(DW_LANG_C)
     760                            .dwattr $C$DW$T$76, DW_AT_decl_file("C:/TI_CodeComposer/ccsv6/tools/compiler/ti-cgt-arm_15.12.
     761                            .dwattr $C$DW$T$76, DW_AT_decl_line(0x2c)
     762                            .dwattr $C$DW$T$76, DW_AT_decl_column(0x1d)
     763                    
     764                    $C$DW$T$77      .dwtag  DW_TAG_typedef
     765                            .dwattr $C$DW$T$77, DW_AT_name("int_least16_t")
     766                            .dwattr $C$DW$T$77, DW_AT_type(*$C$DW$T$76)
     767                            .dwattr $C$DW$T$77, DW_AT_language(DW_LANG_C)
     768                            .dwattr $C$DW$T$77, DW_AT_decl_file("C:/TI_CodeComposer/ccsv6/tools/compiler/ti-cgt-arm_15.12.
     769                            .dwattr $C$DW$T$77, DW_AT_decl_line(0x3a)
     770                            .dwattr $C$DW$T$77, DW_AT_decl_column(0x17)
     771                    
     772                    $C$DW$T$78      .dwtag  DW_TAG_typedef
     773                            .dwattr $C$DW$T$78, DW_AT_name("portSHORT")
     774                            .dwattr $C$DW$T$78, DW_AT_type(*$C$DW$T$76)
     775                            .dwattr $C$DW$T$78, DW_AT_language(DW_LANG_C)
     776                            .dwattr $C$DW$T$78, DW_AT_decl_file("H:/EECS_388/TI_ARM_Projects/ADC_Pot/Source/portable/CCS/A
     777                            .dwattr $C$DW$T$78, DW_AT_decl_line(0x6a)
     778                            .dwattr $C$DW$T$78, DW_AT_decl_column(0x12)
     779                    
     780                    $C$DW$T$9       .dwtag  DW_TAG_base_type
     781                            .dwattr $C$DW$T$9, DW_AT_encoding(DW_ATE_unsigned)
     782                            .dwattr $C$DW$T$9, DW_AT_name("unsigned short")
     783                            .dwattr $C$DW$T$9, DW_AT_byte_size(0x02)
     784                    
     785                    $C$DW$T$44      .dwtag  DW_TAG_typedef
     786                            .dwattr $C$DW$T$44, DW_AT_name("uint16_t")
     787                            .dwattr $C$DW$T$44, DW_AT_type(*$C$DW$T$9)
     788                            .dwattr $C$DW$T$44, DW_AT_language(DW_LANG_C)
     789                            .dwattr $C$DW$T$44, DW_AT_decl_file("C:/TI_CodeComposer/ccsv6/tools/compiler/ti-cgt-arm_15.12.
     790                            .dwattr $C$DW$T$44, DW_AT_decl_line(0x2d)
     791                            .dwattr $C$DW$T$44, DW_AT_decl_column(0x1c)
     792                    
     793                    $C$DW$T$79      .dwtag  DW_TAG_typedef
     794                            .dwattr $C$DW$T$79, DW_AT_name("uint_least16_t")
     795                            .dwattr $C$DW$T$79, DW_AT_type(*$C$DW$T$44)
     796                            .dwattr $C$DW$T$79, DW_AT_language(DW_LANG_C)
     797                            .dwattr $C$DW$T$79, DW_AT_decl_file("C:/TI_CodeComposer/ccsv6/tools/compiler/ti-cgt-arm_15.12.
     798                            .dwattr $C$DW$T$79, DW_AT_decl_line(0x3b)
     799                            .dwattr $C$DW$T$79, DW_AT_decl_column(0x16)
     800                    
     801                    $C$DW$T$80      .dwtag  DW_TAG_typedef
     802                            .dwattr $C$DW$T$80, DW_AT_name("wchar_t")
     803                            .dwattr $C$DW$T$80, DW_AT_type(*$C$DW$T$9)
     804                            .dwattr $C$DW$T$80, DW_AT_language(DW_LANG_C)
     805                            .dwattr $C$DW$T$80, DW_AT_decl_file("C:/TI_CodeComposer/ccsv6/tools/compiler/ti-cgt-arm_15.12.
     806                            .dwattr $C$DW$T$80, DW_AT_decl_line(0x41)
     807                            .dwattr $C$DW$T$80, DW_AT_decl_column(0x1a)
     808                    
TI ARM Assembler PC v15.12.1 Wed Mar 01 14:56:09 2017

Tools Copyright (c) 1996-2015 Texas Instruments Incorporated
Task_ReportSysTick.asm                                               PAGE   16

     809                    $C$DW$T$10      .dwtag  DW_TAG_base_type
     810                            .dwattr $C$DW$T$10, DW_AT_encoding(DW_ATE_signed)
     811                            .dwattr $C$DW$T$10, DW_AT_name("int")
     812                            .dwattr $C$DW$T$10, DW_AT_byte_size(0x04)
     813                    
     814                    $C$DW$T$54      .dwtag  DW_TAG_typedef
     815                            .dwattr $C$DW$T$54, DW_AT_name("int32_t")
     816                            .dwattr $C$DW$T$54, DW_AT_type(*$C$DW$T$10)
     817                            .dwattr $C$DW$T$54, DW_AT_language(DW_LANG_C)
     818                            .dwattr $C$DW$T$54, DW_AT_decl_file("C:/TI_CodeComposer/ccsv6/tools/compiler/ti-cgt-arm_15.12.
     819                            .dwattr $C$DW$T$54, DW_AT_decl_line(0x2e)
     820                            .dwattr $C$DW$T$54, DW_AT_decl_column(0x1d)
     821                    
     822                    $C$DW$T$55      .dwtag  DW_TAG_typedef
     823                            .dwattr $C$DW$T$55, DW_AT_name("BaseType_t")
     824                            .dwattr $C$DW$T$55, DW_AT_type(*$C$DW$T$54)
     825                            .dwattr $C$DW$T$55, DW_AT_language(DW_LANG_C)
     826                            .dwattr $C$DW$T$55, DW_AT_decl_file("H:/EECS_388/TI_ARM_Projects/ADC_Pot/Source/portable/CCS/A
     827                            .dwattr $C$DW$T$55, DW_AT_decl_line(0x6f)
     828                            .dwattr $C$DW$T$55, DW_AT_decl_column(0x12)
     829                    
     830                    
     831                    $C$DW$T$84      .dwtag  DW_TAG_subroutine_type
     832                            .dwattr $C$DW$T$84, DW_AT_type(*$C$DW$T$55)
     833                            .dwattr $C$DW$T$84, DW_AT_language(DW_LANG_C)
     834                    $C$DW$55        .dwtag  DW_TAG_formal_parameter
     835                            .dwattr $C$DW$55, DW_AT_type(*$C$DW$T$3)
     836                    
     837                            .dwendtag $C$DW$T$84
     838                    
     839                    $C$DW$T$85      .dwtag  DW_TAG_pointer_type
     840                            .dwattr $C$DW$T$85, DW_AT_type(*$C$DW$T$84)
     841                            .dwattr $C$DW$T$85, DW_AT_address_class(0x20)
     842                    
     843                    $C$DW$T$86      .dwtag  DW_TAG_typedef
     844                            .dwattr $C$DW$T$86, DW_AT_name("TaskHookFunction_t")
     845                            .dwattr $C$DW$T$86, DW_AT_type(*$C$DW$T$85)
     846                            .dwattr $C$DW$T$86, DW_AT_language(DW_LANG_C)
     847                            .dwattr $C$DW$T$86, DW_AT_decl_file("H:/EECS_388/TI_ARM_Projects/ADC_Pot/Source/include/task.h
     848                            .dwattr $C$DW$T$86, DW_AT_decl_line(0x6d)
     849                            .dwattr $C$DW$T$86, DW_AT_decl_column(0x16)
     850                    
     851                    $C$DW$T$87      .dwtag  DW_TAG_typedef
     852                            .dwattr $C$DW$T$87, DW_AT_name("int_fast16_t")
     853                            .dwattr $C$DW$T$87, DW_AT_type(*$C$DW$T$54)
     854                            .dwattr $C$DW$T$87, DW_AT_language(DW_LANG_C)
     855                            .dwattr $C$DW$T$87, DW_AT_decl_file("C:/TI_CodeComposer/ccsv6/tools/compiler/ti-cgt-arm_15.12.
     856                            .dwattr $C$DW$T$87, DW_AT_decl_line(0x47)
     857                            .dwattr $C$DW$T$87, DW_AT_decl_column(0x17)
     858                    
     859                    $C$DW$T$88      .dwtag  DW_TAG_typedef
     860                            .dwattr $C$DW$T$88, DW_AT_name("int_fast32_t")
     861                            .dwattr $C$DW$T$88, DW_AT_type(*$C$DW$T$54)
     862                            .dwattr $C$DW$T$88, DW_AT_language(DW_LANG_C)
     863                            .dwattr $C$DW$T$88, DW_AT_decl_file("C:/TI_CodeComposer/ccsv6/tools/compiler/ti-cgt-arm_15.12.
TI ARM Assembler PC v15.12.1 Wed Mar 01 14:56:09 2017

Tools Copyright (c) 1996-2015 Texas Instruments Incorporated
Task_ReportSysTick.asm                                               PAGE   17

     864                            .dwattr $C$DW$T$88, DW_AT_decl_line(0x4a)
     865                            .dwattr $C$DW$T$88, DW_AT_decl_column(0x17)
     866                    
     867                    $C$DW$T$89      .dwtag  DW_TAG_typedef
     868                            .dwattr $C$DW$T$89, DW_AT_name("int_fast8_t")
     869                            .dwattr $C$DW$T$89, DW_AT_type(*$C$DW$T$54)
     870                            .dwattr $C$DW$T$89, DW_AT_language(DW_LANG_C)
     871                            .dwattr $C$DW$T$89, DW_AT_decl_file("C:/TI_CodeComposer/ccsv6/tools/compiler/ti-cgt-arm_15.12.
     872                            .dwattr $C$DW$T$89, DW_AT_decl_line(0x45)
     873                            .dwattr $C$DW$T$89, DW_AT_decl_column(0x17)
     874                    
     875                    $C$DW$T$90      .dwtag  DW_TAG_typedef
     876                            .dwattr $C$DW$T$90, DW_AT_name("int_least32_t")
     877                            .dwattr $C$DW$T$90, DW_AT_type(*$C$DW$T$54)
     878                            .dwattr $C$DW$T$90, DW_AT_language(DW_LANG_C)
     879                            .dwattr $C$DW$T$90, DW_AT_decl_file("C:/TI_CodeComposer/ccsv6/tools/compiler/ti-cgt-arm_15.12.
     880                            .dwattr $C$DW$T$90, DW_AT_decl_line(0x3c)
     881                            .dwattr $C$DW$T$90, DW_AT_decl_column(0x17)
     882                    
     883                    $C$DW$T$91      .dwtag  DW_TAG_typedef
     884                            .dwattr $C$DW$T$91, DW_AT_name("portBASE_TYPE")
     885                            .dwattr $C$DW$T$91, DW_AT_type(*$C$DW$T$54)
     886                            .dwattr $C$DW$T$91, DW_AT_language(DW_LANG_C)
     887                            .dwattr $C$DW$T$91, DW_AT_decl_file("H:/EECS_388/TI_ARM_Projects/ADC_Pot/Source/portable/CCS/A
     888                            .dwattr $C$DW$T$91, DW_AT_decl_line(0x6c)
     889                            .dwattr $C$DW$T$91, DW_AT_decl_column(0x12)
     890                    
     891                    $C$DW$T$92      .dwtag  DW_TAG_typedef
     892                            .dwattr $C$DW$T$92, DW_AT_name("portLONG")
     893                            .dwattr $C$DW$T$92, DW_AT_type(*$C$DW$T$54)
     894                            .dwattr $C$DW$T$92, DW_AT_language(DW_LANG_C)
     895                            .dwattr $C$DW$T$92, DW_AT_decl_file("H:/EECS_388/TI_ARM_Projects/ADC_Pot/Source/portable/CCS/A
     896                            .dwattr $C$DW$T$92, DW_AT_decl_line(0x69)
     897                            .dwattr $C$DW$T$92, DW_AT_decl_column(0x12)
     898                    
     899                    $C$DW$T$93      .dwtag  DW_TAG_typedef
     900                            .dwattr $C$DW$T$93, DW_AT_name("intptr_t")
     901                            .dwattr $C$DW$T$93, DW_AT_type(*$C$DW$T$10)
     902                            .dwattr $C$DW$T$93, DW_AT_language(DW_LANG_C)
     903                            .dwattr $C$DW$T$93, DW_AT_decl_file("C:/TI_CodeComposer/ccsv6/tools/compiler/ti-cgt-arm_15.12.
     904                            .dwattr $C$DW$T$93, DW_AT_decl_line(0x52)
     905                            .dwattr $C$DW$T$93, DW_AT_decl_column(0x1a)
     906                    
     907                    $C$DW$T$94      .dwtag  DW_TAG_typedef
     908                            .dwattr $C$DW$T$94, DW_AT_name("ptrdiff_t")
     909                            .dwattr $C$DW$T$94, DW_AT_type(*$C$DW$T$10)
     910                            .dwattr $C$DW$T$94, DW_AT_language(DW_LANG_C)
     911                            .dwattr $C$DW$T$94, DW_AT_decl_file("C:/TI_CodeComposer/ccsv6/tools/compiler/ti-cgt-arm_15.12.
     912                            .dwattr $C$DW$T$94, DW_AT_decl_line(0x36)
     913                            .dwattr $C$DW$T$94, DW_AT_decl_column(0x1c)
     914                    
     915                    $C$DW$T$11      .dwtag  DW_TAG_base_type
     916                            .dwattr $C$DW$T$11, DW_AT_encoding(DW_ATE_unsigned)
     917                            .dwattr $C$DW$T$11, DW_AT_name("unsigned int")
     918                            .dwattr $C$DW$T$11, DW_AT_byte_size(0x04)
TI ARM Assembler PC v15.12.1 Wed Mar 01 14:56:09 2017

Tools Copyright (c) 1996-2015 Texas Instruments Incorporated
Task_ReportSysTick.asm                                               PAGE   18

     919                    
     920                    $C$DW$T$23      .dwtag  DW_TAG_typedef
     921                            .dwattr $C$DW$T$23, DW_AT_name("size_t")
     922                            .dwattr $C$DW$T$23, DW_AT_type(*$C$DW$T$11)
     923                            .dwattr $C$DW$T$23, DW_AT_language(DW_LANG_C)
     924                            .dwattr $C$DW$T$23, DW_AT_decl_file("C:/TI_CodeComposer/ccsv6/tools/compiler/ti-cgt-arm_15.12.
     925                            .dwattr $C$DW$T$23, DW_AT_decl_line(0x3a)
     926                            .dwattr $C$DW$T$23, DW_AT_decl_column(0x19)
     927                    
     928                    $C$DW$T$26      .dwtag  DW_TAG_typedef
     929                            .dwattr $C$DW$T$26, DW_AT_name("uint32_t")
     930                            .dwattr $C$DW$T$26, DW_AT_type(*$C$DW$T$11)
     931                            .dwattr $C$DW$T$26, DW_AT_language(DW_LANG_C)
     932                            .dwattr $C$DW$T$26, DW_AT_decl_file("C:/TI_CodeComposer/ccsv6/tools/compiler/ti-cgt-arm_15.12.
     933                            .dwattr $C$DW$T$26, DW_AT_decl_line(0x2f)
     934                            .dwattr $C$DW$T$26, DW_AT_decl_column(0x1c)
     935                    
     936                    $C$DW$T$45      .dwtag  DW_TAG_typedef
     937                            .dwattr $C$DW$T$45, DW_AT_name("StackType_t")
     938                            .dwattr $C$DW$T$45, DW_AT_type(*$C$DW$T$26)
     939                            .dwattr $C$DW$T$45, DW_AT_language(DW_LANG_C)
     940                            .dwattr $C$DW$T$45, DW_AT_decl_file("H:/EECS_388/TI_ARM_Projects/ADC_Pot/Source/portable/CCS/A
     941                            .dwattr $C$DW$T$45, DW_AT_decl_line(0x6e)
     942                            .dwattr $C$DW$T$45, DW_AT_decl_column(0x12)
     943                    
     944                    $C$DW$T$46      .dwtag  DW_TAG_pointer_type
     945                            .dwattr $C$DW$T$46, DW_AT_type(*$C$DW$T$45)
     946                            .dwattr $C$DW$T$46, DW_AT_address_class(0x20)
     947                    
     948                    $C$DW$T$32      .dwtag  DW_TAG_typedef
     949                            .dwattr $C$DW$T$32, DW_AT_name("TickType_t")
     950                            .dwattr $C$DW$T$32, DW_AT_type(*$C$DW$T$26)
     951                            .dwattr $C$DW$T$32, DW_AT_language(DW_LANG_C)
     952                            .dwattr $C$DW$T$32, DW_AT_decl_file("H:/EECS_388/TI_ARM_Projects/ADC_Pot/Source/portable/CCS/A
     953                            .dwattr $C$DW$T$32, DW_AT_decl_line(0x76)
     954                            .dwattr $C$DW$T$32, DW_AT_decl_column(0x13)
     955                    
     956                    $C$DW$T$65      .dwtag  DW_TAG_const_type
     957                            .dwattr $C$DW$T$65, DW_AT_type(*$C$DW$T$32)
     958                    
     959                    $C$DW$T$27      .dwtag  DW_TAG_typedef
     960                            .dwattr $C$DW$T$27, DW_AT_name("UBaseType_t")
     961                            .dwattr $C$DW$T$27, DW_AT_type(*$C$DW$T$26)
     962                            .dwattr $C$DW$T$27, DW_AT_language(DW_LANG_C)
     963                            .dwattr $C$DW$T$27, DW_AT_decl_file("H:/EECS_388/TI_ARM_Projects/ADC_Pot/Source/portable/CCS/A
     964                            .dwattr $C$DW$T$27, DW_AT_decl_line(0x70)
     965                            .dwattr $C$DW$T$27, DW_AT_decl_column(0x12)
     966                    
     967                    $C$DW$T$97      .dwtag  DW_TAG_typedef
     968                            .dwattr $C$DW$T$97, DW_AT_name("portSTACK_TYPE")
     969                            .dwattr $C$DW$T$97, DW_AT_type(*$C$DW$T$26)
     970                            .dwattr $C$DW$T$97, DW_AT_language(DW_LANG_C)
     971                            .dwattr $C$DW$T$97, DW_AT_decl_file("H:/EECS_388/TI_ARM_Projects/ADC_Pot/Source/portable/CCS/A
     972                            .dwattr $C$DW$T$97, DW_AT_decl_line(0x6b)
     973                            .dwattr $C$DW$T$97, DW_AT_decl_column(0x12)
TI ARM Assembler PC v15.12.1 Wed Mar 01 14:56:09 2017

Tools Copyright (c) 1996-2015 Texas Instruments Incorporated
Task_ReportSysTick.asm                                               PAGE   19

     974                    
     975                    $C$DW$T$98      .dwtag  DW_TAG_typedef
     976                            .dwattr $C$DW$T$98, DW_AT_name("uint_fast16_t")
     977                            .dwattr $C$DW$T$98, DW_AT_type(*$C$DW$T$26)
     978                            .dwattr $C$DW$T$98, DW_AT_language(DW_LANG_C)
     979                            .dwattr $C$DW$T$98, DW_AT_decl_file("C:/TI_CodeComposer/ccsv6/tools/compiler/ti-cgt-arm_15.12.
     980                            .dwattr $C$DW$T$98, DW_AT_decl_line(0x48)
     981                            .dwattr $C$DW$T$98, DW_AT_decl_column(0x16)
     982                    
     983                    $C$DW$T$99      .dwtag  DW_TAG_typedef
     984                            .dwattr $C$DW$T$99, DW_AT_name("uint_fast32_t")
     985                            .dwattr $C$DW$T$99, DW_AT_type(*$C$DW$T$26)
     986                            .dwattr $C$DW$T$99, DW_AT_language(DW_LANG_C)
     987                            .dwattr $C$DW$T$99, DW_AT_decl_file("C:/TI_CodeComposer/ccsv6/tools/compiler/ti-cgt-arm_15.12.
     988                            .dwattr $C$DW$T$99, DW_AT_decl_line(0x4b)
     989                            .dwattr $C$DW$T$99, DW_AT_decl_column(0x16)
     990                    
     991                    $C$DW$T$100     .dwtag  DW_TAG_typedef
     992                            .dwattr $C$DW$T$100, DW_AT_name("uint_fast8_t")
     993                            .dwattr $C$DW$T$100, DW_AT_type(*$C$DW$T$26)
     994                            .dwattr $C$DW$T$100, DW_AT_language(DW_LANG_C)
     995                            .dwattr $C$DW$T$100, DW_AT_decl_file("C:/TI_CodeComposer/ccsv6/tools/compiler/ti-cgt-arm_15.12
     996                            .dwattr $C$DW$T$100, DW_AT_decl_line(0x46)
     997                            .dwattr $C$DW$T$100, DW_AT_decl_column(0x16)
     998                    
     999                    $C$DW$T$101     .dwtag  DW_TAG_typedef
    1000                            .dwattr $C$DW$T$101, DW_AT_name("uint_least32_t")
    1001                            .dwattr $C$DW$T$101, DW_AT_type(*$C$DW$T$26)
    1002                            .dwattr $C$DW$T$101, DW_AT_language(DW_LANG_C)
    1003                            .dwattr $C$DW$T$101, DW_AT_decl_file("C:/TI_CodeComposer/ccsv6/tools/compiler/ti-cgt-arm_15.12
    1004                            .dwattr $C$DW$T$101, DW_AT_decl_line(0x3d)
    1005                            .dwattr $C$DW$T$101, DW_AT_decl_column(0x16)
    1006                    
    1007                    $C$DW$T$102     .dwtag  DW_TAG_typedef
    1008                            .dwattr $C$DW$T$102, DW_AT_name("uintptr_t")
    1009                            .dwattr $C$DW$T$102, DW_AT_type(*$C$DW$T$11)
    1010                            .dwattr $C$DW$T$102, DW_AT_language(DW_LANG_C)
    1011                            .dwattr $C$DW$T$102, DW_AT_decl_file("C:/TI_CodeComposer/ccsv6/tools/compiler/ti-cgt-arm_15.12
    1012                            .dwattr $C$DW$T$102, DW_AT_decl_line(0x53)
    1013                            .dwattr $C$DW$T$102, DW_AT_decl_column(0x1a)
    1014                    
    1015                    $C$DW$T$12      .dwtag  DW_TAG_base_type
    1016                            .dwattr $C$DW$T$12, DW_AT_encoding(DW_ATE_signed)
    1017                            .dwattr $C$DW$T$12, DW_AT_name("long")
    1018                            .dwattr $C$DW$T$12, DW_AT_byte_size(0x04)
    1019                    
    1020                    $C$DW$T$103     .dwtag  DW_TAG_typedef
    1021                            .dwattr $C$DW$T$103, DW_AT_name("fpos_t")
    1022                            .dwattr $C$DW$T$103, DW_AT_type(*$C$DW$T$12)
    1023                            .dwattr $C$DW$T$103, DW_AT_language(DW_LANG_C)
    1024                            .dwattr $C$DW$T$103, DW_AT_decl_file("C:/TI_CodeComposer/ccsv6/tools/compiler/ti-cgt-arm_15.12
    1025                            .dwattr $C$DW$T$103, DW_AT_decl_line(0x6e)
    1026                            .dwattr $C$DW$T$103, DW_AT_decl_column(0x0e)
    1027                    
    1028                    $C$DW$T$13      .dwtag  DW_TAG_base_type
TI ARM Assembler PC v15.12.1 Wed Mar 01 14:56:09 2017

Tools Copyright (c) 1996-2015 Texas Instruments Incorporated
Task_ReportSysTick.asm                                               PAGE   20

    1029                            .dwattr $C$DW$T$13, DW_AT_encoding(DW_ATE_unsigned)
    1030                            .dwattr $C$DW$T$13, DW_AT_name("unsigned long")
    1031                            .dwattr $C$DW$T$13, DW_AT_byte_size(0x04)
    1032                    
    1033                    $C$DW$T$14      .dwtag  DW_TAG_base_type
    1034                            .dwattr $C$DW$T$14, DW_AT_encoding(DW_ATE_signed)
    1035                            .dwattr $C$DW$T$14, DW_AT_name("long long")
    1036                            .dwattr $C$DW$T$14, DW_AT_byte_size(0x08)
    1037                    
    1038                    $C$DW$T$104     .dwtag  DW_TAG_typedef
    1039                            .dwattr $C$DW$T$104, DW_AT_name("int64_t")
    1040                            .dwattr $C$DW$T$104, DW_AT_type(*$C$DW$T$14)
    1041                            .dwattr $C$DW$T$104, DW_AT_language(DW_LANG_C)
    1042                            .dwattr $C$DW$T$104, DW_AT_decl_file("C:/TI_CodeComposer/ccsv6/tools/compiler/ti-cgt-arm_15.12
    1043                            .dwattr $C$DW$T$104, DW_AT_decl_line(0x32)
    1044                            .dwattr $C$DW$T$104, DW_AT_decl_column(0x21)
    1045                    
    1046                    $C$DW$T$105     .dwtag  DW_TAG_typedef
    1047                            .dwattr $C$DW$T$105, DW_AT_name("int_fast64_t")
    1048                            .dwattr $C$DW$T$105, DW_AT_type(*$C$DW$T$104)
    1049                            .dwattr $C$DW$T$105, DW_AT_language(DW_LANG_C)
    1050                            .dwattr $C$DW$T$105, DW_AT_decl_file("C:/TI_CodeComposer/ccsv6/tools/compiler/ti-cgt-arm_15.12
    1051                            .dwattr $C$DW$T$105, DW_AT_decl_line(0x4e)
    1052                            .dwattr $C$DW$T$105, DW_AT_decl_column(0x17)
    1053                    
    1054                    $C$DW$T$106     .dwtag  DW_TAG_typedef
    1055                            .dwattr $C$DW$T$106, DW_AT_name("int_least64_t")
    1056                            .dwattr $C$DW$T$106, DW_AT_type(*$C$DW$T$104)
    1057                            .dwattr $C$DW$T$106, DW_AT_language(DW_LANG_C)
    1058                            .dwattr $C$DW$T$106, DW_AT_decl_file("C:/TI_CodeComposer/ccsv6/tools/compiler/ti-cgt-arm_15.12
    1059                            .dwattr $C$DW$T$106, DW_AT_decl_line(0x40)
    1060                            .dwattr $C$DW$T$106, DW_AT_decl_column(0x17)
    1061                    
    1062                    $C$DW$T$107     .dwtag  DW_TAG_typedef
    1063                            .dwattr $C$DW$T$107, DW_AT_name("portDOUBLE")
    1064                            .dwattr $C$DW$T$107, DW_AT_type(*$C$DW$T$104)
    1065                            .dwattr $C$DW$T$107, DW_AT_language(DW_LANG_C)
    1066                            .dwattr $C$DW$T$107, DW_AT_decl_file("H:/EECS_388/TI_ARM_Projects/ADC_Pot/Source/portable/CCS/
    1067                            .dwattr $C$DW$T$107, DW_AT_decl_line(0x68)
    1068                            .dwattr $C$DW$T$107, DW_AT_decl_column(0x12)
    1069                    
    1070                    $C$DW$T$108     .dwtag  DW_TAG_typedef
    1071                            .dwattr $C$DW$T$108, DW_AT_name("intmax_t")
    1072                            .dwattr $C$DW$T$108, DW_AT_type(*$C$DW$T$14)
    1073                            .dwattr $C$DW$T$108, DW_AT_language(DW_LANG_C)
    1074                            .dwattr $C$DW$T$108, DW_AT_decl_file("C:/TI_CodeComposer/ccsv6/tools/compiler/ti-cgt-arm_15.12
    1075                            .dwattr $C$DW$T$108, DW_AT_decl_line(0x56)
    1076                            .dwattr $C$DW$T$108, DW_AT_decl_column(0x20)
    1077                    
    1078                    $C$DW$T$15      .dwtag  DW_TAG_base_type
    1079                            .dwattr $C$DW$T$15, DW_AT_encoding(DW_ATE_unsigned)
    1080                            .dwattr $C$DW$T$15, DW_AT_name("unsigned long long")
    1081                            .dwattr $C$DW$T$15, DW_AT_byte_size(0x08)
    1082                    
    1083                    $C$DW$T$109     .dwtag  DW_TAG_typedef
TI ARM Assembler PC v15.12.1 Wed Mar 01 14:56:09 2017

Tools Copyright (c) 1996-2015 Texas Instruments Incorporated
Task_ReportSysTick.asm                                               PAGE   21

    1084                            .dwattr $C$DW$T$109, DW_AT_name("uint64_t")
    1085                            .dwattr $C$DW$T$109, DW_AT_type(*$C$DW$T$15)
    1086                            .dwattr $C$DW$T$109, DW_AT_language(DW_LANG_C)
    1087                            .dwattr $C$DW$T$109, DW_AT_decl_file("C:/TI_CodeComposer/ccsv6/tools/compiler/ti-cgt-arm_15.12
    1088                            .dwattr $C$DW$T$109, DW_AT_decl_line(0x33)
    1089                            .dwattr $C$DW$T$109, DW_AT_decl_column(0x20)
    1090                    
    1091                    $C$DW$T$110     .dwtag  DW_TAG_typedef
    1092                            .dwattr $C$DW$T$110, DW_AT_name("uint_fast64_t")
    1093                            .dwattr $C$DW$T$110, DW_AT_type(*$C$DW$T$109)
    1094                            .dwattr $C$DW$T$110, DW_AT_language(DW_LANG_C)
    1095                            .dwattr $C$DW$T$110, DW_AT_decl_file("C:/TI_CodeComposer/ccsv6/tools/compiler/ti-cgt-arm_15.12
    1096                            .dwattr $C$DW$T$110, DW_AT_decl_line(0x4f)
    1097                            .dwattr $C$DW$T$110, DW_AT_decl_column(0x16)
    1098                    
    1099                    $C$DW$T$111     .dwtag  DW_TAG_typedef
    1100                            .dwattr $C$DW$T$111, DW_AT_name("uint_least64_t")
    1101                            .dwattr $C$DW$T$111, DW_AT_type(*$C$DW$T$109)
    1102                            .dwattr $C$DW$T$111, DW_AT_language(DW_LANG_C)
    1103                            .dwattr $C$DW$T$111, DW_AT_decl_file("C:/TI_CodeComposer/ccsv6/tools/compiler/ti-cgt-arm_15.12
    1104                            .dwattr $C$DW$T$111, DW_AT_decl_line(0x41)
    1105                            .dwattr $C$DW$T$111, DW_AT_decl_column(0x16)
    1106                    
    1107                    $C$DW$T$112     .dwtag  DW_TAG_typedef
    1108                            .dwattr $C$DW$T$112, DW_AT_name("uintmax_t")
    1109                            .dwattr $C$DW$T$112, DW_AT_type(*$C$DW$T$15)
    1110                            .dwattr $C$DW$T$112, DW_AT_language(DW_LANG_C)
    1111                            .dwattr $C$DW$T$112, DW_AT_decl_file("C:/TI_CodeComposer/ccsv6/tools/compiler/ti-cgt-arm_15.12
    1112                            .dwattr $C$DW$T$112, DW_AT_decl_line(0x57)
    1113                            .dwattr $C$DW$T$112, DW_AT_decl_column(0x20)
    1114                    
    1115                    $C$DW$T$16      .dwtag  DW_TAG_base_type
    1116                            .dwattr $C$DW$T$16, DW_AT_encoding(DW_ATE_float)
    1117                            .dwattr $C$DW$T$16, DW_AT_name("float")
    1118                            .dwattr $C$DW$T$16, DW_AT_byte_size(0x04)
    1119                    
    1120                    $C$DW$T$113     .dwtag  DW_TAG_typedef
    1121                            .dwattr $C$DW$T$113, DW_AT_name("portFLOAT")
    1122                            .dwattr $C$DW$T$113, DW_AT_type(*$C$DW$T$16)
    1123                            .dwattr $C$DW$T$113, DW_AT_language(DW_LANG_C)
    1124                            .dwattr $C$DW$T$113, DW_AT_decl_file("H:/EECS_388/TI_ARM_Projects/ADC_Pot/Source/portable/CCS/
    1125                            .dwattr $C$DW$T$113, DW_AT_decl_line(0x67)
    1126                            .dwattr $C$DW$T$113, DW_AT_decl_column(0x10)
    1127                    
    1128                    $C$DW$T$17      .dwtag  DW_TAG_base_type
    1129                            .dwattr $C$DW$T$17, DW_AT_encoding(DW_ATE_float)
    1130                            .dwattr $C$DW$T$17, DW_AT_name("double")
    1131                            .dwattr $C$DW$T$17, DW_AT_byte_size(0x08)
    1132                    
    1133                    $C$DW$T$18      .dwtag  DW_TAG_base_type
    1134                            .dwattr $C$DW$T$18, DW_AT_encoding(DW_ATE_float)
    1135                            .dwattr $C$DW$T$18, DW_AT_name("long double")
    1136                            .dwattr $C$DW$T$18, DW_AT_byte_size(0x08)
    1137                    
    1138                    $C$DW$T$41      .dwtag  DW_TAG_const_type
TI ARM Assembler PC v15.12.1 Wed Mar 01 14:56:09 2017

Tools Copyright (c) 1996-2015 Texas Instruments Incorporated
Task_ReportSysTick.asm                                               PAGE   22

    1139                            .dwattr $C$DW$T$41, DW_AT_type(*$C$DW$T$6)
    1140                    
    1141                    $C$DW$T$42      .dwtag  DW_TAG_pointer_type
    1142                            .dwattr $C$DW$T$42, DW_AT_type(*$C$DW$T$41)
    1143                            .dwattr $C$DW$T$42, DW_AT_address_class(0x20)
    1144                    
    1145                    $C$DW$T$43      .dwtag  DW_TAG_const_type
    1146                            .dwattr $C$DW$T$43, DW_AT_type(*$C$DW$T$42)
    1147                    
    1148                    $C$DW$T$81      .dwtag  DW_TAG_pointer_type
    1149                            .dwattr $C$DW$T$81, DW_AT_type(*$C$DW$T$6)
    1150                            .dwattr $C$DW$T$81, DW_AT_address_class(0x20)
    1151                    
    1152                    
    1153                    $C$DW$T$114     .dwtag  DW_TAG_array_type
    1154                            .dwattr $C$DW$T$114, DW_AT_type(*$C$DW$T$6)
    1155                            .dwattr $C$DW$T$114, DW_AT_language(DW_LANG_C)
    1156                            .dwattr $C$DW$T$114, DW_AT_byte_size(0x18)
    1157                    $C$DW$56        .dwtag  DW_TAG_subrange_type
    1158                            .dwattr $C$DW$56, DW_AT_upper_bound(0x17)
    1159                    
    1160                            .dwendtag $C$DW$T$114
    1161                    
    1162                    
    1163                    $C$DW$T$115     .dwtag  DW_TAG_array_type
    1164                            .dwattr $C$DW$T$115, DW_AT_type(*$C$DW$T$6)
    1165                            .dwattr $C$DW$T$115, DW_AT_language(DW_LANG_C)
    1166                            .dwattr $C$DW$T$115, DW_AT_byte_size(0x1a)
    1167                    $C$DW$57        .dwtag  DW_TAG_subrange_type
    1168                            .dwattr $C$DW$57, DW_AT_upper_bound(0x19)
    1169                    
    1170                            .dwendtag $C$DW$T$115
    1171                    
    1172                    
    1173                    $C$DW$T$25      .dwtag  DW_TAG_structure_type
    1174                            .dwattr $C$DW$T$25, DW_AT_name("__va_list")
    1175                            .dwattr $C$DW$T$25, DW_AT_byte_size(0x04)
    1176                    $C$DW$58        .dwtag  DW_TAG_member
    1177                            .dwattr $C$DW$58, DW_AT_type(*$C$DW$T$3)
    1178                            .dwattr $C$DW$58, DW_AT_name("__ap")
    1179                            .dwattr $C$DW$58, DW_AT_TI_symbol_name("__ap")
    1180                            .dwattr $C$DW$58, DW_AT_data_member_location[DW_OP_plus_uconst 0x0]
    1181                            .dwattr $C$DW$58, DW_AT_accessibility(DW_ACCESS_public)
    1182                            .dwattr $C$DW$58, DW_AT_decl_file("C:/TI_CodeComposer/ccsv6/tools/compiler/ti-cgt-arm_15.12.1.
    1183                            .dwattr $C$DW$58, DW_AT_decl_line(0x38)
    1184                            .dwattr $C$DW$58, DW_AT_decl_column(0x0c)
    1185                    
    1186                            .dwattr $C$DW$T$25, DW_AT_decl_file("C:/TI_CodeComposer/ccsv6/tools/compiler/ti-cgt-arm_15.12.
    1187                            .dwattr $C$DW$T$25, DW_AT_decl_line(0x37)
    1188                            .dwattr $C$DW$T$25, DW_AT_decl_column(0x10)
    1189                            .dwendtag $C$DW$T$25
    1190                    
    1191                    $C$DW$T$120     .dwtag  DW_TAG_typedef
    1192                            .dwattr $C$DW$T$120, DW_AT_name("va_list")
    1193                            .dwattr $C$DW$T$120, DW_AT_type(*$C$DW$T$25)
TI ARM Assembler PC v15.12.1 Wed Mar 01 14:56:09 2017

Tools Copyright (c) 1996-2015 Texas Instruments Incorporated
Task_ReportSysTick.asm                                               PAGE   23

    1194                            .dwattr $C$DW$T$120, DW_AT_language(DW_LANG_C)
    1195                            .dwattr $C$DW$T$120, DW_AT_decl_file("C:/TI_CodeComposer/ccsv6/tools/compiler/ti-cgt-arm_15.12
    1196                            .dwattr $C$DW$T$120, DW_AT_decl_line(0x39)
    1197                            .dwattr $C$DW$T$120, DW_AT_decl_column(0x03)
    1198                    
    1199                    
    1200                    $C$DW$T$31      .dwtag  DW_TAG_structure_type
    1201                            .dwattr $C$DW$T$31, DW_AT_name("xLIST")
    1202                            .dwattr $C$DW$T$31, DW_AT_byte_size(0x14)
    1203                    $C$DW$59        .dwtag  DW_TAG_member
    1204                            .dwattr $C$DW$59, DW_AT_type(*$C$DW$T$27)
    1205                            .dwattr $C$DW$59, DW_AT_name("uxNumberOfItems")
    1206                            .dwattr $C$DW$59, DW_AT_TI_symbol_name("uxNumberOfItems")
    1207                            .dwattr $C$DW$59, DW_AT_data_member_location[DW_OP_plus_uconst 0x0]
    1208                            .dwattr $C$DW$59, DW_AT_accessibility(DW_ACCESS_public)
    1209                            .dwattr $C$DW$59, DW_AT_decl_file("H:\EECS_388\TI_ARM_Projects\ADC_Pot\Source\include\list.h")
    1210                            .dwattr $C$DW$59, DW_AT_decl_line(0xd0)
    1211                            .dwattr $C$DW$59, DW_AT_decl_column(0x22)
    1212                    
    1213                    $C$DW$60        .dwtag  DW_TAG_member
    1214                            .dwattr $C$DW$60, DW_AT_type(*$C$DW$T$29)
    1215                            .dwattr $C$DW$60, DW_AT_name("pxIndex")
    1216                            .dwattr $C$DW$60, DW_AT_TI_symbol_name("pxIndex")
    1217                            .dwattr $C$DW$60, DW_AT_data_member_location[DW_OP_plus_uconst 0x4]
    1218                            .dwattr $C$DW$60, DW_AT_accessibility(DW_ACCESS_public)
    1219                            .dwattr $C$DW$60, DW_AT_decl_file("H:\EECS_388\TI_ARM_Projects\ADC_Pot\Source\include\list.h")
    1220                            .dwattr $C$DW$60, DW_AT_decl_line(0xd1)
    1221                            .dwattr $C$DW$60, DW_AT_decl_column(0x23)
    1222                    
    1223                    $C$DW$61        .dwtag  DW_TAG_member
    1224                            .dwattr $C$DW$61, DW_AT_type(*$C$DW$T$30)
    1225                            .dwattr $C$DW$61, DW_AT_name("xListEnd")
    1226                            .dwattr $C$DW$61, DW_AT_TI_symbol_name("xListEnd")
    1227                            .dwattr $C$DW$61, DW_AT_data_member_location[DW_OP_plus_uconst 0x8]
    1228                            .dwattr $C$DW$61, DW_AT_accessibility(DW_ACCESS_public)
    1229                            .dwattr $C$DW$61, DW_AT_decl_file("H:\EECS_388\TI_ARM_Projects\ADC_Pot\Source\include\list.h")
    1230                            .dwattr $C$DW$61, DW_AT_decl_line(0xd2)
    1231                            .dwattr $C$DW$61, DW_AT_decl_column(0x11)
    1232                    
    1233                            .dwattr $C$DW$T$31, DW_AT_decl_file("H:\EECS_388\TI_ARM_Projects\ADC_Pot\Source\include\list.h
    1234                            .dwattr $C$DW$T$31, DW_AT_decl_line(0xcd)
    1235                            .dwattr $C$DW$T$31, DW_AT_decl_column(0x10)
    1236                            .dwendtag $C$DW$T$31
    1237                    
    1238                    $C$DW$T$121     .dwtag  DW_TAG_typedef
    1239                            .dwattr $C$DW$T$121, DW_AT_name("List_t")
    1240                            .dwattr $C$DW$T$121, DW_AT_type(*$C$DW$T$31)
    1241                            .dwattr $C$DW$T$121, DW_AT_language(DW_LANG_C)
    1242                            .dwattr $C$DW$T$121, DW_AT_decl_file("H:\EECS_388\TI_ARM_Projects\ADC_Pot\Source\include\list.
    1243                            .dwattr $C$DW$T$121, DW_AT_decl_line(0xd4)
    1244                            .dwattr $C$DW$T$121, DW_AT_decl_column(0x03)
    1245                    
    1246                    
    1247                    $C$DW$T$34      .dwtag  DW_TAG_structure_type
    1248                            .dwattr $C$DW$T$34, DW_AT_name("xLIST_ITEM")
TI ARM Assembler PC v15.12.1 Wed Mar 01 14:56:09 2017

Tools Copyright (c) 1996-2015 Texas Instruments Incorporated
Task_ReportSysTick.asm                                               PAGE   24

    1249                            .dwattr $C$DW$T$34, DW_AT_byte_size(0x14)
    1250                    $C$DW$62        .dwtag  DW_TAG_member
    1251                            .dwattr $C$DW$62, DW_AT_type(*$C$DW$T$32)
    1252                            .dwattr $C$DW$62, DW_AT_name("xItemValue")
    1253                            .dwattr $C$DW$62, DW_AT_TI_symbol_name("xItemValue")
    1254                            .dwattr $C$DW$62, DW_AT_data_member_location[DW_OP_plus_uconst 0x0]
    1255                            .dwattr $C$DW$62, DW_AT_accessibility(DW_ACCESS_public)
    1256                            .dwattr $C$DW$62, DW_AT_decl_file("H:\EECS_388\TI_ARM_Projects\ADC_Pot\Source\include\list.h")
    1257                            .dwattr $C$DW$62, DW_AT_decl_line(0xb8)
    1258                            .dwattr $C$DW$62, DW_AT_decl_column(0x21)
    1259                    
    1260                    $C$DW$63        .dwtag  DW_TAG_member
    1261                            .dwattr $C$DW$63, DW_AT_type(*$C$DW$T$33)
    1262                            .dwattr $C$DW$63, DW_AT_name("pxNext")
    1263                            .dwattr $C$DW$63, DW_AT_TI_symbol_name("pxNext")
    1264                            .dwattr $C$DW$63, DW_AT_data_member_location[DW_OP_plus_uconst 0x4]
    1265                            .dwattr $C$DW$63, DW_AT_accessibility(DW_ACCESS_public)
    1266                            .dwattr $C$DW$63, DW_AT_decl_file("H:\EECS_388\TI_ARM_Projects\ADC_Pot\Source\include\list.h")
    1267                            .dwattr $C$DW$63, DW_AT_decl_line(0xb9)
    1268                            .dwattr $C$DW$63, DW_AT_decl_column(0x2a)
    1269                    
    1270                    $C$DW$64        .dwtag  DW_TAG_member
    1271                            .dwattr $C$DW$64, DW_AT_type(*$C$DW$T$33)
    1272                            .dwattr $C$DW$64, DW_AT_name("pxPrevious")
    1273                            .dwattr $C$DW$64, DW_AT_TI_symbol_name("pxPrevious")
    1274                            .dwattr $C$DW$64, DW_AT_data_member_location[DW_OP_plus_uconst 0x8]
    1275                            .dwattr $C$DW$64, DW_AT_accessibility(DW_ACCESS_public)
    1276                            .dwattr $C$DW$64, DW_AT_decl_file("H:\EECS_388\TI_ARM_Projects\ADC_Pot\Source\include\list.h")
    1277                            .dwattr $C$DW$64, DW_AT_decl_line(0xba)
    1278                            .dwattr $C$DW$64, DW_AT_decl_column(0x2a)
    1279                    
    1280                    $C$DW$65        .dwtag  DW_TAG_member
    1281                            .dwattr $C$DW$65, DW_AT_type(*$C$DW$T$3)
    1282                            .dwattr $C$DW$65, DW_AT_name("pvOwner")
    1283                            .dwattr $C$DW$65, DW_AT_TI_symbol_name("pvOwner")
    1284                            .dwattr $C$DW$65, DW_AT_data_member_location[DW_OP_plus_uconst 0xc]
    1285                            .dwattr $C$DW$65, DW_AT_accessibility(DW_ACCESS_public)
    1286                            .dwattr $C$DW$65, DW_AT_decl_file("H:\EECS_388\TI_ARM_Projects\ADC_Pot\Source\include\list.h")
    1287                            .dwattr $C$DW$65, DW_AT_decl_line(0xbb)
    1288                            .dwattr $C$DW$65, DW_AT_decl_column(0x09)
    1289                    
    1290                    $C$DW$66        .dwtag  DW_TAG_member
    1291                            .dwattr $C$DW$66, DW_AT_type(*$C$DW$T$3)
    1292                            .dwattr $C$DW$66, DW_AT_name("pvContainer")
    1293                            .dwattr $C$DW$66, DW_AT_TI_symbol_name("pvContainer")
    1294                            .dwattr $C$DW$66, DW_AT_data_member_location[DW_OP_plus_uconst 0x10]
    1295                            .dwattr $C$DW$66, DW_AT_accessibility(DW_ACCESS_public)
    1296                            .dwattr $C$DW$66, DW_AT_decl_file("H:\EECS_388\TI_ARM_Projects\ADC_Pot\Source\include\list.h")
    1297                            .dwattr $C$DW$66, DW_AT_decl_line(0xbc)
    1298                            .dwattr $C$DW$66, DW_AT_decl_column(0x1d)
    1299                    
    1300                            .dwattr $C$DW$T$34, DW_AT_decl_file("H:\EECS_388\TI_ARM_Projects\ADC_Pot\Source\include\list.h
    1301                            .dwattr $C$DW$T$34, DW_AT_decl_line(0xb5)
    1302                            .dwattr $C$DW$T$34, DW_AT_decl_column(0x08)
    1303                            .dwendtag $C$DW$T$34
TI ARM Assembler PC v15.12.1 Wed Mar 01 14:56:09 2017

Tools Copyright (c) 1996-2015 Texas Instruments Incorporated
Task_ReportSysTick.asm                                               PAGE   25

    1304                    
    1305                    $C$DW$T$28      .dwtag  DW_TAG_typedef
    1306                            .dwattr $C$DW$T$28, DW_AT_name("ListItem_t")
    1307                            .dwattr $C$DW$T$28, DW_AT_type(*$C$DW$T$34)
    1308                            .dwattr $C$DW$T$28, DW_AT_language(DW_LANG_C)
    1309                            .dwattr $C$DW$T$28, DW_AT_decl_file("H:\EECS_388\TI_ARM_Projects\ADC_Pot\Source\include\list.h
    1310                            .dwattr $C$DW$T$28, DW_AT_decl_line(0xbf)
    1311                            .dwattr $C$DW$T$28, DW_AT_decl_column(0x1b)
    1312                    
    1313                    $C$DW$T$29      .dwtag  DW_TAG_pointer_type
    1314                            .dwattr $C$DW$T$29, DW_AT_type(*$C$DW$T$28)
    1315                            .dwattr $C$DW$T$29, DW_AT_address_class(0x20)
    1316                    
    1317                    $C$DW$T$33      .dwtag  DW_TAG_pointer_type
    1318                            .dwattr $C$DW$T$33, DW_AT_type(*$C$DW$T$34)
    1319                            .dwattr $C$DW$T$33, DW_AT_address_class(0x20)
    1320                    
    1321                    
    1322                    $C$DW$T$35      .dwtag  DW_TAG_structure_type
    1323                            .dwattr $C$DW$T$35, DW_AT_name("xMEMORY_REGION")
    1324                            .dwattr $C$DW$T$35, DW_AT_byte_size(0x0c)
    1325                    $C$DW$67        .dwtag  DW_TAG_member
    1326                            .dwattr $C$DW$67, DW_AT_type(*$C$DW$T$3)
    1327                            .dwattr $C$DW$67, DW_AT_name("pvBaseAddress")
    1328                            .dwattr $C$DW$67, DW_AT_TI_symbol_name("pvBaseAddress")
    1329                            .dwattr $C$DW$67, DW_AT_data_member_location[DW_OP_plus_uconst 0x0]
    1330                            .dwattr $C$DW$67, DW_AT_accessibility(DW_ACCESS_public)
    1331                            .dwattr $C$DW$67, DW_AT_decl_file("H:/EECS_388/TI_ARM_Projects/ADC_Pot/Source/include/task.h")
    1332                            .dwattr $C$DW$67, DW_AT_decl_line(0x91)
    1333                            .dwattr $C$DW$67, DW_AT_decl_column(0x08)
    1334                    
    1335                    $C$DW$68        .dwtag  DW_TAG_member
    1336                            .dwattr $C$DW$68, DW_AT_type(*$C$DW$T$26)
    1337                            .dwattr $C$DW$68, DW_AT_name("ulLengthInBytes")
    1338                            .dwattr $C$DW$68, DW_AT_TI_symbol_name("ulLengthInBytes")
    1339                            .dwattr $C$DW$68, DW_AT_data_member_location[DW_OP_plus_uconst 0x4]
    1340                            .dwattr $C$DW$68, DW_AT_accessibility(DW_ACCESS_public)
    1341                            .dwattr $C$DW$68, DW_AT_decl_file("H:/EECS_388/TI_ARM_Projects/ADC_Pot/Source/include/task.h")
    1342                            .dwattr $C$DW$68, DW_AT_decl_line(0x92)
    1343                            .dwattr $C$DW$68, DW_AT_decl_column(0x0b)
    1344                    
    1345                    $C$DW$69        .dwtag  DW_TAG_member
    1346                            .dwattr $C$DW$69, DW_AT_type(*$C$DW$T$26)
    1347                            .dwattr $C$DW$69, DW_AT_name("ulParameters")
    1348                            .dwattr $C$DW$69, DW_AT_TI_symbol_name("ulParameters")
    1349                            .dwattr $C$DW$69, DW_AT_data_member_location[DW_OP_plus_uconst 0x8]
    1350                            .dwattr $C$DW$69, DW_AT_accessibility(DW_ACCESS_public)
    1351                            .dwattr $C$DW$69, DW_AT_decl_file("H:/EECS_388/TI_ARM_Projects/ADC_Pot/Source/include/task.h")
    1352                            .dwattr $C$DW$69, DW_AT_decl_line(0x93)
    1353                            .dwattr $C$DW$69, DW_AT_decl_column(0x0b)
    1354                    
    1355                            .dwattr $C$DW$T$35, DW_AT_decl_file("H:/EECS_388/TI_ARM_Projects/ADC_Pot/Source/include/task.h
    1356                            .dwattr $C$DW$T$35, DW_AT_decl_line(0x8f)
    1357                            .dwattr $C$DW$T$35, DW_AT_decl_column(0x10)
    1358                            .dwendtag $C$DW$T$35
TI ARM Assembler PC v15.12.1 Wed Mar 01 14:56:09 2017

Tools Copyright (c) 1996-2015 Texas Instruments Incorporated
Task_ReportSysTick.asm                                               PAGE   26

    1359                    
    1360                    $C$DW$T$47      .dwtag  DW_TAG_typedef
    1361                            .dwattr $C$DW$T$47, DW_AT_name("MemoryRegion_t")
    1362                            .dwattr $C$DW$T$47, DW_AT_type(*$C$DW$T$35)
    1363                            .dwattr $C$DW$T$47, DW_AT_language(DW_LANG_C)
    1364                            .dwattr $C$DW$T$47, DW_AT_decl_file("H:/EECS_388/TI_ARM_Projects/ADC_Pot/Source/include/task.h
    1365                            .dwattr $C$DW$T$47, DW_AT_decl_line(0x94)
    1366                            .dwattr $C$DW$T$47, DW_AT_decl_column(0x03)
    1367                    
    1368                    
    1369                    $C$DW$T$48      .dwtag  DW_TAG_array_type
    1370                            .dwattr $C$DW$T$48, DW_AT_type(*$C$DW$T$47)
    1371                            .dwattr $C$DW$T$48, DW_AT_language(DW_LANG_C)
    1372                            .dwattr $C$DW$T$48, DW_AT_byte_size(0x0c)
    1373                    $C$DW$70        .dwtag  DW_TAG_subrange_type
    1374                            .dwattr $C$DW$70, DW_AT_upper_bound(0x00)
    1375                    
    1376                            .dwendtag $C$DW$T$48
    1377                    
    1378                    
    1379                    $C$DW$T$36      .dwtag  DW_TAG_structure_type
    1380                            .dwattr $C$DW$T$36, DW_AT_name("xMINI_LIST_ITEM")
    1381                            .dwattr $C$DW$T$36, DW_AT_byte_size(0x0c)
    1382                    $C$DW$71        .dwtag  DW_TAG_member
    1383                            .dwattr $C$DW$71, DW_AT_type(*$C$DW$T$32)
    1384                            .dwattr $C$DW$71, DW_AT_name("xItemValue")
    1385                            .dwattr $C$DW$71, DW_AT_TI_symbol_name("xItemValue")
    1386                            .dwattr $C$DW$71, DW_AT_data_member_location[DW_OP_plus_uconst 0x0]
    1387                            .dwattr $C$DW$71, DW_AT_accessibility(DW_ACCESS_public)
    1388                            .dwattr $C$DW$71, DW_AT_decl_file("H:\EECS_388\TI_ARM_Projects\ADC_Pot\Source\include\list.h")
    1389                            .dwattr $C$DW$71, DW_AT_decl_line(0xc4)
    1390                            .dwattr $C$DW$71, DW_AT_decl_column(0x21)
    1391                    
    1392                    $C$DW$72        .dwtag  DW_TAG_member
    1393                            .dwattr $C$DW$72, DW_AT_type(*$C$DW$T$33)
    1394                            .dwattr $C$DW$72, DW_AT_name("pxNext")
    1395                            .dwattr $C$DW$72, DW_AT_TI_symbol_name("pxNext")
    1396                            .dwattr $C$DW$72, DW_AT_data_member_location[DW_OP_plus_uconst 0x4]
    1397                            .dwattr $C$DW$72, DW_AT_accessibility(DW_ACCESS_public)
    1398                            .dwattr $C$DW$72, DW_AT_decl_file("H:\EECS_388\TI_ARM_Projects\ADC_Pot\Source\include\list.h")
    1399                            .dwattr $C$DW$72, DW_AT_decl_line(0xc5)
    1400                            .dwattr $C$DW$72, DW_AT_decl_column(0x2a)
    1401                    
    1402                    $C$DW$73        .dwtag  DW_TAG_member
    1403                            .dwattr $C$DW$73, DW_AT_type(*$C$DW$T$33)
    1404                            .dwattr $C$DW$73, DW_AT_name("pxPrevious")
    1405                            .dwattr $C$DW$73, DW_AT_TI_symbol_name("pxPrevious")
    1406                            .dwattr $C$DW$73, DW_AT_data_member_location[DW_OP_plus_uconst 0x8]
    1407                            .dwattr $C$DW$73, DW_AT_accessibility(DW_ACCESS_public)
    1408                            .dwattr $C$DW$73, DW_AT_decl_file("H:\EECS_388\TI_ARM_Projects\ADC_Pot\Source\include\list.h")
    1409                            .dwattr $C$DW$73, DW_AT_decl_line(0xc6)
    1410                            .dwattr $C$DW$73, DW_AT_decl_column(0x2a)
    1411                    
    1412                            .dwattr $C$DW$T$36, DW_AT_decl_file("H:\EECS_388\TI_ARM_Projects\ADC_Pot\Source\include\list.h
    1413                            .dwattr $C$DW$T$36, DW_AT_decl_line(0xc1)
TI ARM Assembler PC v15.12.1 Wed Mar 01 14:56:09 2017

Tools Copyright (c) 1996-2015 Texas Instruments Incorporated
Task_ReportSysTick.asm                                               PAGE   27

    1414                            .dwattr $C$DW$T$36, DW_AT_decl_column(0x08)
    1415                            .dwendtag $C$DW$T$36
    1416                    
    1417                    $C$DW$T$30      .dwtag  DW_TAG_typedef
    1418                            .dwattr $C$DW$T$30, DW_AT_name("MiniListItem_t")
    1419                            .dwattr $C$DW$T$30, DW_AT_type(*$C$DW$T$36)
    1420                            .dwattr $C$DW$T$30, DW_AT_language(DW_LANG_C)
    1421                            .dwattr $C$DW$T$30, DW_AT_decl_file("H:\EECS_388\TI_ARM_Projects\ADC_Pot\Source\include\list.h
    1422                            .dwattr $C$DW$T$30, DW_AT_decl_line(0xc8)
    1423                            .dwattr $C$DW$T$30, DW_AT_decl_column(0x20)
    1424                    
    1425                    
    1426                    $C$DW$T$49      .dwtag  DW_TAG_structure_type
    1427                            .dwattr $C$DW$T$49, DW_AT_name("xTASK_PARAMETERS")
    1428                            .dwattr $C$DW$T$49, DW_AT_byte_size(0x24)
    1429                    $C$DW$74        .dwtag  DW_TAG_member
    1430                            .dwattr $C$DW$74, DW_AT_type(*$C$DW$T$39)
    1431                            .dwattr $C$DW$74, DW_AT_name("pvTaskCode")
    1432                            .dwattr $C$DW$74, DW_AT_TI_symbol_name("pvTaskCode")
    1433                            .dwattr $C$DW$74, DW_AT_data_member_location[DW_OP_plus_uconst 0x0]
    1434                            .dwattr $C$DW$74, DW_AT_accessibility(DW_ACCESS_public)
    1435                            .dwattr $C$DW$74, DW_AT_decl_file("H:/EECS_388/TI_ARM_Projects/ADC_Pot/Source/include/task.h")
    1436                            .dwattr $C$DW$74, DW_AT_decl_line(0x9b)
    1437                            .dwattr $C$DW$74, DW_AT_decl_column(0x11)
    1438                    
    1439                    $C$DW$75        .dwtag  DW_TAG_member
    1440                            .dwattr $C$DW$75, DW_AT_type(*$C$DW$T$43)
    1441                            .dwattr $C$DW$75, DW_AT_name("pcName")
    1442                            .dwattr $C$DW$75, DW_AT_TI_symbol_name("pcName")
    1443                            .dwattr $C$DW$75, DW_AT_data_member_location[DW_OP_plus_uconst 0x4]
    1444                            .dwattr $C$DW$75, DW_AT_accessibility(DW_ACCESS_public)
    1445                            .dwattr $C$DW$75, DW_AT_decl_file("H:/EECS_388/TI_ARM_Projects/ADC_Pot/Source/include/task.h")
    1446                            .dwattr $C$DW$75, DW_AT_decl_line(0x9c)
    1447                            .dwattr $C$DW$75, DW_AT_decl_column(0x15)
    1448                    
    1449                    $C$DW$76        .dwtag  DW_TAG_member
    1450                            .dwattr $C$DW$76, DW_AT_type(*$C$DW$T$44)
    1451                            .dwattr $C$DW$76, DW_AT_name("usStackDepth")
    1452                            .dwattr $C$DW$76, DW_AT_TI_symbol_name("usStackDepth")
    1453                            .dwattr $C$DW$76, DW_AT_data_member_location[DW_OP_plus_uconst 0x8]
    1454                            .dwattr $C$DW$76, DW_AT_accessibility(DW_ACCESS_public)
    1455                            .dwattr $C$DW$76, DW_AT_decl_file("H:/EECS_388/TI_ARM_Projects/ADC_Pot/Source/include/task.h")
    1456                            .dwattr $C$DW$76, DW_AT_decl_line(0x9d)
    1457                            .dwattr $C$DW$76, DW_AT_decl_column(0x0b)
    1458                    
    1459                    $C$DW$77        .dwtag  DW_TAG_member
    1460                            .dwattr $C$DW$77, DW_AT_type(*$C$DW$T$3)
    1461                            .dwattr $C$DW$77, DW_AT_name("pvParameters")
    1462                            .dwattr $C$DW$77, DW_AT_TI_symbol_name("pvParameters")
    1463                            .dwattr $C$DW$77, DW_AT_data_member_location[DW_OP_plus_uconst 0xc]
    1464                            .dwattr $C$DW$77, DW_AT_accessibility(DW_ACCESS_public)
    1465                            .dwattr $C$DW$77, DW_AT_decl_file("H:/EECS_388/TI_ARM_Projects/ADC_Pot/Source/include/task.h")
    1466                            .dwattr $C$DW$77, DW_AT_decl_line(0x9e)
    1467                            .dwattr $C$DW$77, DW_AT_decl_column(0x08)
    1468                    
TI ARM Assembler PC v15.12.1 Wed Mar 01 14:56:09 2017

Tools Copyright (c) 1996-2015 Texas Instruments Incorporated
Task_ReportSysTick.asm                                               PAGE   28

    1469                    $C$DW$78        .dwtag  DW_TAG_member
    1470                            .dwattr $C$DW$78, DW_AT_type(*$C$DW$T$27)
    1471                            .dwattr $C$DW$78, DW_AT_name("uxPriority")
    1472                            .dwattr $C$DW$78, DW_AT_TI_symbol_name("uxPriority")
    1473                            .dwattr $C$DW$78, DW_AT_data_member_location[DW_OP_plus_uconst 0x10]
    1474                            .dwattr $C$DW$78, DW_AT_accessibility(DW_ACCESS_public)
    1475                            .dwattr $C$DW$78, DW_AT_decl_file("H:/EECS_388/TI_ARM_Projects/ADC_Pot/Source/include/task.h")
    1476                            .dwattr $C$DW$78, DW_AT_decl_line(0x9f)
    1477                            .dwattr $C$DW$78, DW_AT_decl_column(0x0e)
    1478                    
    1479                    $C$DW$79        .dwtag  DW_TAG_member
    1480                            .dwattr $C$DW$79, DW_AT_type(*$C$DW$T$46)
    1481                            .dwattr $C$DW$79, DW_AT_name("puxStackBuffer")
    1482                            .dwattr $C$DW$79, DW_AT_TI_symbol_name("puxStackBuffer")
    1483                            .dwattr $C$DW$79, DW_AT_data_member_location[DW_OP_plus_uconst 0x14]
    1484                            .dwattr $C$DW$79, DW_AT_accessibility(DW_ACCESS_public)
    1485                            .dwattr $C$DW$79, DW_AT_decl_file("H:/EECS_388/TI_ARM_Projects/ADC_Pot/Source/include/task.h")
    1486                            .dwattr $C$DW$79, DW_AT_decl_line(0xa0)
    1487                            .dwattr $C$DW$79, DW_AT_decl_column(0x0f)
    1488                    
    1489                    $C$DW$80        .dwtag  DW_TAG_member
    1490                            .dwattr $C$DW$80, DW_AT_type(*$C$DW$T$48)
    1491                            .dwattr $C$DW$80, DW_AT_name("xRegions")
    1492                            .dwattr $C$DW$80, DW_AT_TI_symbol_name("xRegions")
    1493                            .dwattr $C$DW$80, DW_AT_data_member_location[DW_OP_plus_uconst 0x18]
    1494                            .dwattr $C$DW$80, DW_AT_accessibility(DW_ACCESS_public)
    1495                            .dwattr $C$DW$80, DW_AT_decl_file("H:/EECS_388/TI_ARM_Projects/ADC_Pot/Source/include/task.h")
    1496                            .dwattr $C$DW$80, DW_AT_decl_line(0xa1)
    1497                            .dwattr $C$DW$80, DW_AT_decl_column(0x11)
    1498                    
    1499                            .dwattr $C$DW$T$49, DW_AT_decl_file("H:/EECS_388/TI_ARM_Projects/ADC_Pot/Source/include/task.h
    1500                            .dwattr $C$DW$T$49, DW_AT_decl_line(0x99)
    1501                            .dwattr $C$DW$T$49, DW_AT_decl_column(0x10)
    1502                            .dwendtag $C$DW$T$49
    1503                    
    1504                    $C$DW$T$122     .dwtag  DW_TAG_typedef
    1505                            .dwattr $C$DW$T$122, DW_AT_name("TaskParameters_t")
    1506                            .dwattr $C$DW$T$122, DW_AT_type(*$C$DW$T$49)
    1507                            .dwattr $C$DW$T$122, DW_AT_language(DW_LANG_C)
    1508                            .dwattr $C$DW$T$122, DW_AT_decl_file("H:/EECS_388/TI_ARM_Projects/ADC_Pot/Source/include/task.
    1509                            .dwattr $C$DW$T$122, DW_AT_decl_line(0xa2)
    1510                            .dwattr $C$DW$T$122, DW_AT_decl_column(0x03)
    1511                    
    1512                    
    1513                    $C$DW$T$53      .dwtag  DW_TAG_structure_type
    1514                            .dwattr $C$DW$T$53, DW_AT_name("xTASK_STATUS")
    1515                            .dwattr $C$DW$T$53, DW_AT_byte_size(0x20)
    1516                    $C$DW$81        .dwtag  DW_TAG_member
    1517                            .dwattr $C$DW$81, DW_AT_type(*$C$DW$T$50)
    1518                            .dwattr $C$DW$81, DW_AT_name("xHandle")
    1519                            .dwattr $C$DW$81, DW_AT_TI_symbol_name("xHandle")
    1520                            .dwattr $C$DW$81, DW_AT_data_member_location[DW_OP_plus_uconst 0x0]
    1521                            .dwattr $C$DW$81, DW_AT_accessibility(DW_ACCESS_public)
    1522                            .dwattr $C$DW$81, DW_AT_decl_file("H:/EECS_388/TI_ARM_Projects/ADC_Pot/Source/include/task.h")
    1523                            .dwattr $C$DW$81, DW_AT_decl_line(0xa8)
TI ARM Assembler PC v15.12.1 Wed Mar 01 14:56:09 2017

Tools Copyright (c) 1996-2015 Texas Instruments Incorporated
Task_ReportSysTick.asm                                               PAGE   29

    1524                            .dwattr $C$DW$81, DW_AT_decl_column(0x0f)
    1525                    
    1526                    $C$DW$82        .dwtag  DW_TAG_member
    1527                            .dwattr $C$DW$82, DW_AT_type(*$C$DW$T$42)
    1528                            .dwattr $C$DW$82, DW_AT_name("pcTaskName")
    1529                            .dwattr $C$DW$82, DW_AT_TI_symbol_name("pcTaskName")
    1530                            .dwattr $C$DW$82, DW_AT_data_member_location[DW_OP_plus_uconst 0x4]
    1531                            .dwattr $C$DW$82, DW_AT_accessibility(DW_ACCESS_public)
    1532                            .dwattr $C$DW$82, DW_AT_decl_file("H:/EECS_388/TI_ARM_Projects/ADC_Pot/Source/include/task.h")
    1533                            .dwattr $C$DW$82, DW_AT_decl_line(0xa9)
    1534                            .dwattr $C$DW$82, DW_AT_decl_column(0x0e)
    1535                    
    1536                    $C$DW$83        .dwtag  DW_TAG_member
    1537                            .dwattr $C$DW$83, DW_AT_type(*$C$DW$T$27)
    1538                            .dwattr $C$DW$83, DW_AT_name("xTaskNumber")
    1539                            .dwattr $C$DW$83, DW_AT_TI_symbol_name("xTaskNumber")
    1540                            .dwattr $C$DW$83, DW_AT_data_member_location[DW_OP_plus_uconst 0x8]
    1541                            .dwattr $C$DW$83, DW_AT_accessibility(DW_ACCESS_public)
    1542                            .dwattr $C$DW$83, DW_AT_decl_file("H:/EECS_388/TI_ARM_Projects/ADC_Pot/Source/include/task.h")
    1543                            .dwattr $C$DW$83, DW_AT_decl_line(0xaa)
    1544                            .dwattr $C$DW$83, DW_AT_decl_column(0x0e)
    1545                    
    1546                    $C$DW$84        .dwtag  DW_TAG_member
    1547                            .dwattr $C$DW$84, DW_AT_type(*$C$DW$T$52)
    1548                            .dwattr $C$DW$84, DW_AT_name("eCurrentState")
    1549                            .dwattr $C$DW$84, DW_AT_TI_symbol_name("eCurrentState")
    1550                            .dwattr $C$DW$84, DW_AT_data_member_location[DW_OP_plus_uconst 0xc]
    1551                            .dwattr $C$DW$84, DW_AT_accessibility(DW_ACCESS_public)
    1552                            .dwattr $C$DW$84, DW_AT_decl_file("H:/EECS_388/TI_ARM_Projects/ADC_Pot/Source/include/task.h")
    1553                            .dwattr $C$DW$84, DW_AT_decl_line(0xab)
    1554                            .dwattr $C$DW$84, DW_AT_decl_column(0x0d)
    1555                    
    1556                    $C$DW$85        .dwtag  DW_TAG_member
    1557                            .dwattr $C$DW$85, DW_AT_type(*$C$DW$T$27)
    1558                            .dwattr $C$DW$85, DW_AT_name("uxCurrentPriority")
    1559                            .dwattr $C$DW$85, DW_AT_TI_symbol_name("uxCurrentPriority")
    1560                            .dwattr $C$DW$85, DW_AT_data_member_location[DW_OP_plus_uconst 0x10]
    1561                            .dwattr $C$DW$85, DW_AT_accessibility(DW_ACCESS_public)
    1562                            .dwattr $C$DW$85, DW_AT_decl_file("H:/EECS_388/TI_ARM_Projects/ADC_Pot/Source/include/task.h")
    1563                            .dwattr $C$DW$85, DW_AT_decl_line(0xac)
    1564                            .dwattr $C$DW$85, DW_AT_decl_column(0x0e)
    1565                    
    1566                    $C$DW$86        .dwtag  DW_TAG_member
    1567                            .dwattr $C$DW$86, DW_AT_type(*$C$DW$T$27)
    1568                            .dwattr $C$DW$86, DW_AT_name("uxBasePriority")
    1569                            .dwattr $C$DW$86, DW_AT_TI_symbol_name("uxBasePriority")
    1570                            .dwattr $C$DW$86, DW_AT_data_member_location[DW_OP_plus_uconst 0x14]
    1571                            .dwattr $C$DW$86, DW_AT_accessibility(DW_ACCESS_public)
    1572                            .dwattr $C$DW$86, DW_AT_decl_file("H:/EECS_388/TI_ARM_Projects/ADC_Pot/Source/include/task.h")
    1573                            .dwattr $C$DW$86, DW_AT_decl_line(0xad)
    1574                            .dwattr $C$DW$86, DW_AT_decl_column(0x0e)
    1575                    
    1576                    $C$DW$87        .dwtag  DW_TAG_member
    1577                            .dwattr $C$DW$87, DW_AT_type(*$C$DW$T$26)
    1578                            .dwattr $C$DW$87, DW_AT_name("ulRunTimeCounter")
TI ARM Assembler PC v15.12.1 Wed Mar 01 14:56:09 2017

Tools Copyright (c) 1996-2015 Texas Instruments Incorporated
Task_ReportSysTick.asm                                               PAGE   30

    1579                            .dwattr $C$DW$87, DW_AT_TI_symbol_name("ulRunTimeCounter")
    1580                            .dwattr $C$DW$87, DW_AT_data_member_location[DW_OP_plus_uconst 0x18]
    1581                            .dwattr $C$DW$87, DW_AT_accessibility(DW_ACCESS_public)
    1582                            .dwattr $C$DW$87, DW_AT_decl_file("H:/EECS_388/TI_ARM_Projects/ADC_Pot/Source/include/task.h")
    1583                            .dwattr $C$DW$87, DW_AT_decl_line(0xae)
    1584                            .dwattr $C$DW$87, DW_AT_decl_column(0x0b)
    1585                    
    1586                    $C$DW$88        .dwtag  DW_TAG_member
    1587                            .dwattr $C$DW$88, DW_AT_type(*$C$DW$T$44)
    1588                            .dwattr $C$DW$88, DW_AT_name("usStackHighWaterMark")
    1589                            .dwattr $C$DW$88, DW_AT_TI_symbol_name("usStackHighWaterMark")
    1590                            .dwattr $C$DW$88, DW_AT_data_member_location[DW_OP_plus_uconst 0x1c]
    1591                            .dwattr $C$DW$88, DW_AT_accessibility(DW_ACCESS_public)
    1592                            .dwattr $C$DW$88, DW_AT_decl_file("H:/EECS_388/TI_ARM_Projects/ADC_Pot/Source/include/task.h")
    1593                            .dwattr $C$DW$88, DW_AT_decl_line(0xaf)
    1594                            .dwattr $C$DW$88, DW_AT_decl_column(0x0b)
    1595                    
    1596                            .dwattr $C$DW$T$53, DW_AT_decl_file("H:/EECS_388/TI_ARM_Projects/ADC_Pot/Source/include/task.h
    1597                            .dwattr $C$DW$T$53, DW_AT_decl_line(0xa6)
    1598                            .dwattr $C$DW$T$53, DW_AT_decl_column(0x10)
    1599                            .dwendtag $C$DW$T$53
    1600                    
    1601                    $C$DW$T$123     .dwtag  DW_TAG_typedef
    1602                            .dwattr $C$DW$T$123, DW_AT_name("TaskStatus_t")
    1603                            .dwattr $C$DW$T$123, DW_AT_type(*$C$DW$T$53)
    1604                            .dwattr $C$DW$T$123, DW_AT_language(DW_LANG_C)
    1605                            .dwattr $C$DW$T$123, DW_AT_decl_file("H:/EECS_388/TI_ARM_Projects/ADC_Pot/Source/include/task.
    1606                            .dwattr $C$DW$T$123, DW_AT_decl_line(0xb0)
    1607                            .dwattr $C$DW$T$123, DW_AT_decl_column(0x03)
    1608                    
    1609                    
    1610                    $C$DW$T$56      .dwtag  DW_TAG_structure_type
    1611                            .dwattr $C$DW$T$56, DW_AT_name("xTIME_OUT")
    1612                            .dwattr $C$DW$T$56, DW_AT_byte_size(0x08)
    1613                    $C$DW$89        .dwtag  DW_TAG_member
    1614                            .dwattr $C$DW$89, DW_AT_type(*$C$DW$T$55)
    1615                            .dwattr $C$DW$89, DW_AT_name("xOverflowCount")
    1616                            .dwattr $C$DW$89, DW_AT_TI_symbol_name("xOverflowCount")
    1617                            .dwattr $C$DW$89, DW_AT_data_member_location[DW_OP_plus_uconst 0x0]
    1618                            .dwattr $C$DW$89, DW_AT_accessibility(DW_ACCESS_public)
    1619                            .dwattr $C$DW$89, DW_AT_decl_file("H:/EECS_388/TI_ARM_Projects/ADC_Pot/Source/include/task.h")
    1620                            .dwattr $C$DW$89, DW_AT_decl_line(0x88)
    1621                            .dwattr $C$DW$89, DW_AT_decl_column(0x0d)
    1622                    
    1623                    $C$DW$90        .dwtag  DW_TAG_member
    1624                            .dwattr $C$DW$90, DW_AT_type(*$C$DW$T$32)
    1625                            .dwattr $C$DW$90, DW_AT_name("xTimeOnEntering")
    1626                            .dwattr $C$DW$90, DW_AT_TI_symbol_name("xTimeOnEntering")
    1627                            .dwattr $C$DW$90, DW_AT_data_member_location[DW_OP_plus_uconst 0x4]
    1628                            .dwattr $C$DW$90, DW_AT_accessibility(DW_ACCESS_public)
    1629                            .dwattr $C$DW$90, DW_AT_decl_file("H:/EECS_388/TI_ARM_Projects/ADC_Pot/Source/include/task.h")
    1630                            .dwattr $C$DW$90, DW_AT_decl_line(0x89)
    1631                            .dwattr $C$DW$90, DW_AT_decl_column(0x0d)
    1632                    
    1633                            .dwattr $C$DW$T$56, DW_AT_decl_file("H:/EECS_388/TI_ARM_Projects/ADC_Pot/Source/include/task.h
TI ARM Assembler PC v15.12.1 Wed Mar 01 14:56:09 2017

Tools Copyright (c) 1996-2015 Texas Instruments Incorporated
Task_ReportSysTick.asm                                               PAGE   31

    1634                            .dwattr $C$DW$T$56, DW_AT_decl_line(0x86)
    1635                            .dwattr $C$DW$T$56, DW_AT_decl_column(0x10)
    1636                            .dwendtag $C$DW$T$56
    1637                    
    1638                    $C$DW$T$124     .dwtag  DW_TAG_typedef
    1639                            .dwattr $C$DW$T$124, DW_AT_name("TimeOut_t")
    1640                            .dwattr $C$DW$T$124, DW_AT_type(*$C$DW$T$56)
    1641                            .dwattr $C$DW$T$124, DW_AT_language(DW_LANG_C)
    1642                            .dwattr $C$DW$T$124, DW_AT_decl_file("H:/EECS_388/TI_ARM_Projects/ADC_Pot/Source/include/task.
    1643                            .dwattr $C$DW$T$124, DW_AT_decl_line(0x8a)
    1644                            .dwattr $C$DW$T$124, DW_AT_decl_column(0x03)
    1645                    
    1646                            .dwattr $C$DW$CU, DW_AT_language(DW_LANG_C)
    1647                    
    1648                    ;***************************************************************
    1649                    ;* DWARF CIE ENTRIES                                           *
    1650                    ;***************************************************************
    1651                    
    1652                    $C$DW$CIE       .dwcie 14
    1653                            .dwcfi  cfa_register, 13
    1654                            .dwcfi  cfa_offset, 0
    1655                            .dwcfi  undefined, 0
    1656                            .dwcfi  undefined, 1
    1657                            .dwcfi  undefined, 2
    1658                            .dwcfi  undefined, 3
    1659                            .dwcfi  same_value, 4
    1660                            .dwcfi  same_value, 5
    1661                            .dwcfi  same_value, 6
    1662                            .dwcfi  same_value, 7
    1663                            .dwcfi  same_value, 8
    1664                            .dwcfi  same_value, 9
    1665                            .dwcfi  same_value, 10
    1666                            .dwcfi  same_value, 11
    1667                            .dwcfi  undefined, 12
    1668                            .dwcfi  undefined, 13
    1669                            .dwcfi  undefined, 14
    1670                            .dwcfi  undefined, 14
    1671                            .dwcfi  undefined, 7
    1672                            .dwendentry
    1673                            .dwendtag $C$DW$CU
    1674                    

--------------------------
Thumb2 Statistics
--------------------------
Number of Thumb2 ins converted to Thumb = 0 (0%)
Number of Thumb ins in input = 33 (76%)
Number of Thumb2 ins encoded as Thumb2 = 10 (100%)
Number of Thumb2 ins converted to 2 OPND Thumb = 1


No Assembly Errors, No Assembly Warnings
